ARM GAS  C:\Users\chesn\AppData\Local\Temp\ccAfRyoq.s 			page 1


   1              		.cpu cortex-m7
   2              		.eabi_attribute 28, 1
   3              		.eabi_attribute 20, 1
   4              		.eabi_attribute 21, 1
   5              		.eabi_attribute 23, 3
   6              		.eabi_attribute 24, 1
   7              		.eabi_attribute 25, 1
   8              		.eabi_attribute 26, 1
   9              		.eabi_attribute 30, 1
  10              		.eabi_attribute 34, 1
  11              		.eabi_attribute 18, 4
  12              		.file	"stm32h7xx_hal_flash_ex.c"
  13              		.text
  14              	.Ltext0:
  15              		.cfi_sections	.debug_frame
  16              		.section	.text.FLASH_MassErase,"ax",%progbits
  17              		.align	1
  18              		.arch armv7e-m
  19              		.syntax unified
  20              		.thumb
  21              		.thumb_func
  22              		.fpu fpv5-d16
  24              	FLASH_MassErase:
  25              	.LVL0:
  26              	.LFB150:
  27              		.file 1 "Drivers/STM32H7xx_HAL_Driver/Src/stm32h7xx_hal_flash_ex.c"
   1:Drivers/STM32H7xx_HAL_Driver/Src/stm32h7xx_hal_flash_ex.c **** /**
   2:Drivers/STM32H7xx_HAL_Driver/Src/stm32h7xx_hal_flash_ex.c ****   ******************************************************************************
   3:Drivers/STM32H7xx_HAL_Driver/Src/stm32h7xx_hal_flash_ex.c ****   * @file    stm32h7xx_hal_flash_ex.c
   4:Drivers/STM32H7xx_HAL_Driver/Src/stm32h7xx_hal_flash_ex.c ****   * @author  MCD Application Team
   5:Drivers/STM32H7xx_HAL_Driver/Src/stm32h7xx_hal_flash_ex.c ****   * @brief   Extended FLASH HAL module driver.
   6:Drivers/STM32H7xx_HAL_Driver/Src/stm32h7xx_hal_flash_ex.c ****   *          This file provides firmware functions to manage the following
   7:Drivers/STM32H7xx_HAL_Driver/Src/stm32h7xx_hal_flash_ex.c ****   *          functionalities of the FLASH extension peripheral:
   8:Drivers/STM32H7xx_HAL_Driver/Src/stm32h7xx_hal_flash_ex.c ****   *           + Extended programming operations functions
   9:Drivers/STM32H7xx_HAL_Driver/Src/stm32h7xx_hal_flash_ex.c ****   *
  10:Drivers/STM32H7xx_HAL_Driver/Src/stm32h7xx_hal_flash_ex.c ****  @verbatim
  11:Drivers/STM32H7xx_HAL_Driver/Src/stm32h7xx_hal_flash_ex.c ****  ==============================================================================
  12:Drivers/STM32H7xx_HAL_Driver/Src/stm32h7xx_hal_flash_ex.c ****                    ##### Flash Extension features #####
  13:Drivers/STM32H7xx_HAL_Driver/Src/stm32h7xx_hal_flash_ex.c ****   ==============================================================================
  14:Drivers/STM32H7xx_HAL_Driver/Src/stm32h7xx_hal_flash_ex.c **** 
  15:Drivers/STM32H7xx_HAL_Driver/Src/stm32h7xx_hal_flash_ex.c ****   [..] Comparing to other previous devices, the FLASH interface for STM32H7xx
  16:Drivers/STM32H7xx_HAL_Driver/Src/stm32h7xx_hal_flash_ex.c ****        devices contains the following additional features
  17:Drivers/STM32H7xx_HAL_Driver/Src/stm32h7xx_hal_flash_ex.c **** 
  18:Drivers/STM32H7xx_HAL_Driver/Src/stm32h7xx_hal_flash_ex.c ****        (+) Capacity up to 2 Mbyte with dual bank architecture supporting read-while-write
  19:Drivers/STM32H7xx_HAL_Driver/Src/stm32h7xx_hal_flash_ex.c ****            capability (RWW)
  20:Drivers/STM32H7xx_HAL_Driver/Src/stm32h7xx_hal_flash_ex.c ****        (+) Dual bank memory organization
  21:Drivers/STM32H7xx_HAL_Driver/Src/stm32h7xx_hal_flash_ex.c ****        (+) PCROP protection for all banks
  22:Drivers/STM32H7xx_HAL_Driver/Src/stm32h7xx_hal_flash_ex.c ****        (+) Global readout protection (RDP)
  23:Drivers/STM32H7xx_HAL_Driver/Src/stm32h7xx_hal_flash_ex.c ****        (+) Write protection
  24:Drivers/STM32H7xx_HAL_Driver/Src/stm32h7xx_hal_flash_ex.c ****        (+) Secure access only protection
  25:Drivers/STM32H7xx_HAL_Driver/Src/stm32h7xx_hal_flash_ex.c ****        (+) Bank / register swapping
  26:Drivers/STM32H7xx_HAL_Driver/Src/stm32h7xx_hal_flash_ex.c ****        (+) Cyclic Redundancy Check (CRC)
  27:Drivers/STM32H7xx_HAL_Driver/Src/stm32h7xx_hal_flash_ex.c **** 
  28:Drivers/STM32H7xx_HAL_Driver/Src/stm32h7xx_hal_flash_ex.c ****                         ##### How to use this driver #####
  29:Drivers/STM32H7xx_HAL_Driver/Src/stm32h7xx_hal_flash_ex.c ****  ==============================================================================
  30:Drivers/STM32H7xx_HAL_Driver/Src/stm32h7xx_hal_flash_ex.c ****   [..] This driver provides functions to configure and program the FLASH memory
  31:Drivers/STM32H7xx_HAL_Driver/Src/stm32h7xx_hal_flash_ex.c ****        of all STM32H7xx devices. It includes
ARM GAS  C:\Users\chesn\AppData\Local\Temp\ccAfRyoq.s 			page 2


  32:Drivers/STM32H7xx_HAL_Driver/Src/stm32h7xx_hal_flash_ex.c ****       (#) FLASH Memory Erase functions:
  33:Drivers/STM32H7xx_HAL_Driver/Src/stm32h7xx_hal_flash_ex.c ****            (++) Lock and Unlock the FLASH interface using HAL_FLASH_Unlock() and
  34:Drivers/STM32H7xx_HAL_Driver/Src/stm32h7xx_hal_flash_ex.c ****                 HAL_FLASH_Lock() functions
  35:Drivers/STM32H7xx_HAL_Driver/Src/stm32h7xx_hal_flash_ex.c ****            (++) Erase function: Sector erase, bank erase and dual-bank mass erase
  36:Drivers/STM32H7xx_HAL_Driver/Src/stm32h7xx_hal_flash_ex.c ****            (++) There are two modes of erase :
  37:Drivers/STM32H7xx_HAL_Driver/Src/stm32h7xx_hal_flash_ex.c ****              (+++) Polling Mode using HAL_FLASHEx_Erase()
  38:Drivers/STM32H7xx_HAL_Driver/Src/stm32h7xx_hal_flash_ex.c ****              (+++) Interrupt Mode using HAL_FLASHEx_Erase_IT()
  39:Drivers/STM32H7xx_HAL_Driver/Src/stm32h7xx_hal_flash_ex.c **** 
  40:Drivers/STM32H7xx_HAL_Driver/Src/stm32h7xx_hal_flash_ex.c ****       (#) Option Bytes Programming functions: Use HAL_FLASHEx_OBProgram() to:
  41:Drivers/STM32H7xx_HAL_Driver/Src/stm32h7xx_hal_flash_ex.c ****         (++) Set/Reset the write protection per bank
  42:Drivers/STM32H7xx_HAL_Driver/Src/stm32h7xx_hal_flash_ex.c ****         (++) Set the Read protection Level
  43:Drivers/STM32H7xx_HAL_Driver/Src/stm32h7xx_hal_flash_ex.c ****         (++) Set the BOR level
  44:Drivers/STM32H7xx_HAL_Driver/Src/stm32h7xx_hal_flash_ex.c ****         (++) Program the user Option Bytes
  45:Drivers/STM32H7xx_HAL_Driver/Src/stm32h7xx_hal_flash_ex.c ****         (++) PCROP protection configuration and control per bank
  46:Drivers/STM32H7xx_HAL_Driver/Src/stm32h7xx_hal_flash_ex.c ****         (++) Secure area configuration and control per bank
  47:Drivers/STM32H7xx_HAL_Driver/Src/stm32h7xx_hal_flash_ex.c ****         (++) Core Boot address configuration
  48:Drivers/STM32H7xx_HAL_Driver/Src/stm32h7xx_hal_flash_ex.c **** 
  49:Drivers/STM32H7xx_HAL_Driver/Src/stm32h7xx_hal_flash_ex.c ****       (#) FLASH Memory Lock and unlock per Bank: HAL_FLASHEx_Lock_Bank1(), HAL_FLASHEx_Unlock_Bank1
  50:Drivers/STM32H7xx_HAL_Driver/Src/stm32h7xx_hal_flash_ex.c ****           HAL_FLASHEx_Lock_Bank2() and HAL_FLASHEx_Unlock_Bank2() functions
  51:Drivers/STM32H7xx_HAL_Driver/Src/stm32h7xx_hal_flash_ex.c **** 
  52:Drivers/STM32H7xx_HAL_Driver/Src/stm32h7xx_hal_flash_ex.c ****       (#) FLASH CRC computation function: Use HAL_FLASHEx_ComputeCRC() to:
  53:Drivers/STM32H7xx_HAL_Driver/Src/stm32h7xx_hal_flash_ex.c ****           (++) Enable CRC feature
  54:Drivers/STM32H7xx_HAL_Driver/Src/stm32h7xx_hal_flash_ex.c ****           (++) Program the desired burst size
  55:Drivers/STM32H7xx_HAL_Driver/Src/stm32h7xx_hal_flash_ex.c ****           (++) Define the user Flash Area on which the CRC has be computed
  56:Drivers/STM32H7xx_HAL_Driver/Src/stm32h7xx_hal_flash_ex.c ****           (++) Perform the CRC computation
  57:Drivers/STM32H7xx_HAL_Driver/Src/stm32h7xx_hal_flash_ex.c ****           (++) Disable CRC feature
  58:Drivers/STM32H7xx_HAL_Driver/Src/stm32h7xx_hal_flash_ex.c **** 
  59:Drivers/STM32H7xx_HAL_Driver/Src/stm32h7xx_hal_flash_ex.c ****  @endverbatim
  60:Drivers/STM32H7xx_HAL_Driver/Src/stm32h7xx_hal_flash_ex.c ****   ******************************************************************************
  61:Drivers/STM32H7xx_HAL_Driver/Src/stm32h7xx_hal_flash_ex.c ****   * @attention
  62:Drivers/STM32H7xx_HAL_Driver/Src/stm32h7xx_hal_flash_ex.c ****   *
  63:Drivers/STM32H7xx_HAL_Driver/Src/stm32h7xx_hal_flash_ex.c ****   * <h2><center>&copy; COPYRIGHT(c) 2017 STMicroelectronics.
  64:Drivers/STM32H7xx_HAL_Driver/Src/stm32h7xx_hal_flash_ex.c ****   * All rights reserved.</center></h2>
  65:Drivers/STM32H7xx_HAL_Driver/Src/stm32h7xx_hal_flash_ex.c ****   *
  66:Drivers/STM32H7xx_HAL_Driver/Src/stm32h7xx_hal_flash_ex.c ****   * This software component is licensed by ST under BSD 3-Clause license,
  67:Drivers/STM32H7xx_HAL_Driver/Src/stm32h7xx_hal_flash_ex.c ****   * the "License"; You may not use this file except in compliance with the
  68:Drivers/STM32H7xx_HAL_Driver/Src/stm32h7xx_hal_flash_ex.c ****   * License. You may obtain a copy of the License at:
  69:Drivers/STM32H7xx_HAL_Driver/Src/stm32h7xx_hal_flash_ex.c ****   *                       opensource.org/licenses/BSD-3-Clause
  70:Drivers/STM32H7xx_HAL_Driver/Src/stm32h7xx_hal_flash_ex.c ****   *
  71:Drivers/STM32H7xx_HAL_Driver/Src/stm32h7xx_hal_flash_ex.c ****   ******************************************************************************
  72:Drivers/STM32H7xx_HAL_Driver/Src/stm32h7xx_hal_flash_ex.c ****   */
  73:Drivers/STM32H7xx_HAL_Driver/Src/stm32h7xx_hal_flash_ex.c **** 
  74:Drivers/STM32H7xx_HAL_Driver/Src/stm32h7xx_hal_flash_ex.c **** /* Includes ------------------------------------------------------------------*/
  75:Drivers/STM32H7xx_HAL_Driver/Src/stm32h7xx_hal_flash_ex.c **** #include "stm32h7xx_hal.h"
  76:Drivers/STM32H7xx_HAL_Driver/Src/stm32h7xx_hal_flash_ex.c **** 
  77:Drivers/STM32H7xx_HAL_Driver/Src/stm32h7xx_hal_flash_ex.c **** /** @addtogroup STM32H7xx_HAL_Driver
  78:Drivers/STM32H7xx_HAL_Driver/Src/stm32h7xx_hal_flash_ex.c ****   * @{
  79:Drivers/STM32H7xx_HAL_Driver/Src/stm32h7xx_hal_flash_ex.c ****   */
  80:Drivers/STM32H7xx_HAL_Driver/Src/stm32h7xx_hal_flash_ex.c **** 
  81:Drivers/STM32H7xx_HAL_Driver/Src/stm32h7xx_hal_flash_ex.c **** /** @defgroup FLASHEx  FLASHEx
  82:Drivers/STM32H7xx_HAL_Driver/Src/stm32h7xx_hal_flash_ex.c ****   * @brief FLASH HAL Extension module driver
  83:Drivers/STM32H7xx_HAL_Driver/Src/stm32h7xx_hal_flash_ex.c ****   * @{
  84:Drivers/STM32H7xx_HAL_Driver/Src/stm32h7xx_hal_flash_ex.c ****   */
  85:Drivers/STM32H7xx_HAL_Driver/Src/stm32h7xx_hal_flash_ex.c **** 
  86:Drivers/STM32H7xx_HAL_Driver/Src/stm32h7xx_hal_flash_ex.c **** #ifdef HAL_FLASH_MODULE_ENABLED
  87:Drivers/STM32H7xx_HAL_Driver/Src/stm32h7xx_hal_flash_ex.c **** 
  88:Drivers/STM32H7xx_HAL_Driver/Src/stm32h7xx_hal_flash_ex.c **** /* Private typedef -----------------------------------------------------------*/
ARM GAS  C:\Users\chesn\AppData\Local\Temp\ccAfRyoq.s 			page 3


  89:Drivers/STM32H7xx_HAL_Driver/Src/stm32h7xx_hal_flash_ex.c **** /* Private define ------------------------------------------------------------*/
  90:Drivers/STM32H7xx_HAL_Driver/Src/stm32h7xx_hal_flash_ex.c **** /** @addtogroup FLASHEx_Private_Constants
  91:Drivers/STM32H7xx_HAL_Driver/Src/stm32h7xx_hal_flash_ex.c ****   * @{
  92:Drivers/STM32H7xx_HAL_Driver/Src/stm32h7xx_hal_flash_ex.c ****   */
  93:Drivers/STM32H7xx_HAL_Driver/Src/stm32h7xx_hal_flash_ex.c **** #define FLASH_TIMEOUT_VALUE       50000U /* 50 s */
  94:Drivers/STM32H7xx_HAL_Driver/Src/stm32h7xx_hal_flash_ex.c **** 
  95:Drivers/STM32H7xx_HAL_Driver/Src/stm32h7xx_hal_flash_ex.c **** /**
  96:Drivers/STM32H7xx_HAL_Driver/Src/stm32h7xx_hal_flash_ex.c ****   * @}
  97:Drivers/STM32H7xx_HAL_Driver/Src/stm32h7xx_hal_flash_ex.c ****   */
  98:Drivers/STM32H7xx_HAL_Driver/Src/stm32h7xx_hal_flash_ex.c **** /* Private macro -------------------------------------------------------------*/
  99:Drivers/STM32H7xx_HAL_Driver/Src/stm32h7xx_hal_flash_ex.c **** /* Private variables ---------------------------------------------------------*/
 100:Drivers/STM32H7xx_HAL_Driver/Src/stm32h7xx_hal_flash_ex.c **** /* Private function prototypes -----------------------------------------------*/
 101:Drivers/STM32H7xx_HAL_Driver/Src/stm32h7xx_hal_flash_ex.c **** /** @defgroup FLASHEx_Private_Functions FLASHEx Private Functions
 102:Drivers/STM32H7xx_HAL_Driver/Src/stm32h7xx_hal_flash_ex.c ****   * @{
 103:Drivers/STM32H7xx_HAL_Driver/Src/stm32h7xx_hal_flash_ex.c ****   */
 104:Drivers/STM32H7xx_HAL_Driver/Src/stm32h7xx_hal_flash_ex.c **** static void FLASH_MassErase(uint32_t VoltageRange, uint32_t Banks);
 105:Drivers/STM32H7xx_HAL_Driver/Src/stm32h7xx_hal_flash_ex.c **** static void FLASH_OB_EnableWRP(uint32_t WRPSector, uint32_t Banks);
 106:Drivers/STM32H7xx_HAL_Driver/Src/stm32h7xx_hal_flash_ex.c **** static void FLASH_OB_DisableWRP(uint32_t WRPSector, uint32_t Bank);
 107:Drivers/STM32H7xx_HAL_Driver/Src/stm32h7xx_hal_flash_ex.c **** static void FLASH_OB_GetWRP(uint32_t *WRPState, uint32_t *WRPSector, uint32_t Bank);
 108:Drivers/STM32H7xx_HAL_Driver/Src/stm32h7xx_hal_flash_ex.c **** static void FLASH_OB_RDPConfig(uint32_t RDPLevel);
 109:Drivers/STM32H7xx_HAL_Driver/Src/stm32h7xx_hal_flash_ex.c **** static uint32_t FLASH_OB_GetRDP(void);
 110:Drivers/STM32H7xx_HAL_Driver/Src/stm32h7xx_hal_flash_ex.c **** static void FLASH_OB_PCROPConfig(uint32_t PCROConfigRDP, uint32_t PCROPStartAddr, uint32_t PCROPEnd
 111:Drivers/STM32H7xx_HAL_Driver/Src/stm32h7xx_hal_flash_ex.c **** static void FLASH_OB_GetPCROP(uint32_t *PCROPConfig, uint32_t *PCROPStartAddr,uint32_t *PCROPEndAdd
 112:Drivers/STM32H7xx_HAL_Driver/Src/stm32h7xx_hal_flash_ex.c **** static void FLASH_OB_BOR_LevelConfig(uint32_t Level);
 113:Drivers/STM32H7xx_HAL_Driver/Src/stm32h7xx_hal_flash_ex.c **** static uint32_t FLASH_OB_GetBOR(void);
 114:Drivers/STM32H7xx_HAL_Driver/Src/stm32h7xx_hal_flash_ex.c **** static void FLASH_OB_UserConfig(uint32_t UserType, uint32_t UserConfig);
 115:Drivers/STM32H7xx_HAL_Driver/Src/stm32h7xx_hal_flash_ex.c **** static uint32_t FLASH_OB_GetUser(void);
 116:Drivers/STM32H7xx_HAL_Driver/Src/stm32h7xx_hal_flash_ex.c **** static void FLASH_OB_BootAddConfig(uint32_t BootOption, uint32_t BootAddress0, uint32_t BootAddress
 117:Drivers/STM32H7xx_HAL_Driver/Src/stm32h7xx_hal_flash_ex.c **** static void FLASH_OB_GetBootAdd(uint32_t *BootAddress0, uint32_t *BootAddress1);
 118:Drivers/STM32H7xx_HAL_Driver/Src/stm32h7xx_hal_flash_ex.c **** static void FLASH_OB_SecureAreaConfig(uint32_t SecureAreaConfig, uint32_t SecureAreaStartAddr, uint
 119:Drivers/STM32H7xx_HAL_Driver/Src/stm32h7xx_hal_flash_ex.c **** static void FLASH_OB_GetSecureArea(uint32_t *SecureAreaConfig, uint32_t *SecureAreaStartAddr, uint3
 120:Drivers/STM32H7xx_HAL_Driver/Src/stm32h7xx_hal_flash_ex.c **** static void FLASH_CRC_AddSector(uint32_t Sector, uint32_t Bank);
 121:Drivers/STM32H7xx_HAL_Driver/Src/stm32h7xx_hal_flash_ex.c **** static void FLASH_CRC_SelectAddress(uint32_t CRCStartAddr, uint32_t CRCEndAddr, uint32_t Bank);
 122:Drivers/STM32H7xx_HAL_Driver/Src/stm32h7xx_hal_flash_ex.c **** 
 123:Drivers/STM32H7xx_HAL_Driver/Src/stm32h7xx_hal_flash_ex.c **** #if defined (DUAL_CORE)
 124:Drivers/STM32H7xx_HAL_Driver/Src/stm32h7xx_hal_flash_ex.c **** static void FLASH_OB_CM4BootAddConfig(uint32_t BootOption, uint32_t BootAddress0, uint32_t BootAddr
 125:Drivers/STM32H7xx_HAL_Driver/Src/stm32h7xx_hal_flash_ex.c **** static void FLASH_OB_GetCM4BootAdd(uint32_t *BootAddress0, uint32_t *BootAddress1);
 126:Drivers/STM32H7xx_HAL_Driver/Src/stm32h7xx_hal_flash_ex.c **** #endif /* DUAL_CORE */
 127:Drivers/STM32H7xx_HAL_Driver/Src/stm32h7xx_hal_flash_ex.c **** 
 128:Drivers/STM32H7xx_HAL_Driver/Src/stm32h7xx_hal_flash_ex.c **** #if defined (FLASH_OTPBL_LOCKBL)
 129:Drivers/STM32H7xx_HAL_Driver/Src/stm32h7xx_hal_flash_ex.c **** static void FLASH_OB_OTP_LockConfig(uint32_t OTP_Block);
 130:Drivers/STM32H7xx_HAL_Driver/Src/stm32h7xx_hal_flash_ex.c **** static uint32_t FLASH_OB_OTP_GetLock(void);
 131:Drivers/STM32H7xx_HAL_Driver/Src/stm32h7xx_hal_flash_ex.c **** #endif /* FLASH_OTPBL_LOCKBL */
 132:Drivers/STM32H7xx_HAL_Driver/Src/stm32h7xx_hal_flash_ex.c **** /**
 133:Drivers/STM32H7xx_HAL_Driver/Src/stm32h7xx_hal_flash_ex.c ****   * @}
 134:Drivers/STM32H7xx_HAL_Driver/Src/stm32h7xx_hal_flash_ex.c ****   */
 135:Drivers/STM32H7xx_HAL_Driver/Src/stm32h7xx_hal_flash_ex.c **** 
 136:Drivers/STM32H7xx_HAL_Driver/Src/stm32h7xx_hal_flash_ex.c **** /* Exported functions ---------------------------------------------------------*/
 137:Drivers/STM32H7xx_HAL_Driver/Src/stm32h7xx_hal_flash_ex.c **** /** @defgroup FLASHEx_Exported_Functions FLASHEx Exported Functions
 138:Drivers/STM32H7xx_HAL_Driver/Src/stm32h7xx_hal_flash_ex.c ****   * @{
 139:Drivers/STM32H7xx_HAL_Driver/Src/stm32h7xx_hal_flash_ex.c ****   */
 140:Drivers/STM32H7xx_HAL_Driver/Src/stm32h7xx_hal_flash_ex.c **** 
 141:Drivers/STM32H7xx_HAL_Driver/Src/stm32h7xx_hal_flash_ex.c **** /** @defgroup FLASHEx_Exported_Functions_Group1 Extended IO operation functions
 142:Drivers/STM32H7xx_HAL_Driver/Src/stm32h7xx_hal_flash_ex.c ****  *  @brief   Extended IO operation functions
 143:Drivers/STM32H7xx_HAL_Driver/Src/stm32h7xx_hal_flash_ex.c ****  *
 144:Drivers/STM32H7xx_HAL_Driver/Src/stm32h7xx_hal_flash_ex.c **** @verbatim
 145:Drivers/STM32H7xx_HAL_Driver/Src/stm32h7xx_hal_flash_ex.c ****  ===============================================================================
ARM GAS  C:\Users\chesn\AppData\Local\Temp\ccAfRyoq.s 			page 4


 146:Drivers/STM32H7xx_HAL_Driver/Src/stm32h7xx_hal_flash_ex.c ****                 ##### Extended programming operation functions #####
 147:Drivers/STM32H7xx_HAL_Driver/Src/stm32h7xx_hal_flash_ex.c ****  ===============================================================================
 148:Drivers/STM32H7xx_HAL_Driver/Src/stm32h7xx_hal_flash_ex.c ****     [..]
 149:Drivers/STM32H7xx_HAL_Driver/Src/stm32h7xx_hal_flash_ex.c ****     This subsection provides a set of functions allowing to manage the Extension FLASH
 150:Drivers/STM32H7xx_HAL_Driver/Src/stm32h7xx_hal_flash_ex.c ****     programming operations Operations.
 151:Drivers/STM32H7xx_HAL_Driver/Src/stm32h7xx_hal_flash_ex.c **** 
 152:Drivers/STM32H7xx_HAL_Driver/Src/stm32h7xx_hal_flash_ex.c **** @endverbatim
 153:Drivers/STM32H7xx_HAL_Driver/Src/stm32h7xx_hal_flash_ex.c ****   * @{
 154:Drivers/STM32H7xx_HAL_Driver/Src/stm32h7xx_hal_flash_ex.c ****   */
 155:Drivers/STM32H7xx_HAL_Driver/Src/stm32h7xx_hal_flash_ex.c **** /**
 156:Drivers/STM32H7xx_HAL_Driver/Src/stm32h7xx_hal_flash_ex.c ****   * @brief  Perform a mass erase or erase the specified FLASH memory sectors
 157:Drivers/STM32H7xx_HAL_Driver/Src/stm32h7xx_hal_flash_ex.c ****   * @param[in]  pEraseInit pointer to an FLASH_EraseInitTypeDef structure that
 158:Drivers/STM32H7xx_HAL_Driver/Src/stm32h7xx_hal_flash_ex.c ****   *         contains the configuration information for the erasing.
 159:Drivers/STM32H7xx_HAL_Driver/Src/stm32h7xx_hal_flash_ex.c ****   *
 160:Drivers/STM32H7xx_HAL_Driver/Src/stm32h7xx_hal_flash_ex.c ****   * @param[out]  SectorError pointer to variable  that contains the configuration
 161:Drivers/STM32H7xx_HAL_Driver/Src/stm32h7xx_hal_flash_ex.c ****   *          information on faulty sector in case of error (0xFFFFFFFF means that all
 162:Drivers/STM32H7xx_HAL_Driver/Src/stm32h7xx_hal_flash_ex.c ****   *          the sectors have been correctly erased)
 163:Drivers/STM32H7xx_HAL_Driver/Src/stm32h7xx_hal_flash_ex.c ****   *
 164:Drivers/STM32H7xx_HAL_Driver/Src/stm32h7xx_hal_flash_ex.c ****   * @retval HAL Status
 165:Drivers/STM32H7xx_HAL_Driver/Src/stm32h7xx_hal_flash_ex.c ****   */
 166:Drivers/STM32H7xx_HAL_Driver/Src/stm32h7xx_hal_flash_ex.c **** HAL_StatusTypeDef HAL_FLASHEx_Erase(FLASH_EraseInitTypeDef *pEraseInit, uint32_t *SectorError)
 167:Drivers/STM32H7xx_HAL_Driver/Src/stm32h7xx_hal_flash_ex.c **** {
 168:Drivers/STM32H7xx_HAL_Driver/Src/stm32h7xx_hal_flash_ex.c ****   HAL_StatusTypeDef status = HAL_OK;
 169:Drivers/STM32H7xx_HAL_Driver/Src/stm32h7xx_hal_flash_ex.c ****   uint32_t sector_index;
 170:Drivers/STM32H7xx_HAL_Driver/Src/stm32h7xx_hal_flash_ex.c **** 
 171:Drivers/STM32H7xx_HAL_Driver/Src/stm32h7xx_hal_flash_ex.c ****   /* Check the parameters */
 172:Drivers/STM32H7xx_HAL_Driver/Src/stm32h7xx_hal_flash_ex.c ****   assert_param(IS_FLASH_TYPEERASE(pEraseInit->TypeErase));
 173:Drivers/STM32H7xx_HAL_Driver/Src/stm32h7xx_hal_flash_ex.c ****   assert_param(IS_FLASH_BANK(pEraseInit->Banks));
 174:Drivers/STM32H7xx_HAL_Driver/Src/stm32h7xx_hal_flash_ex.c **** 
 175:Drivers/STM32H7xx_HAL_Driver/Src/stm32h7xx_hal_flash_ex.c ****   /* Process Locked */
 176:Drivers/STM32H7xx_HAL_Driver/Src/stm32h7xx_hal_flash_ex.c ****   __HAL_LOCK(&pFlash);
 177:Drivers/STM32H7xx_HAL_Driver/Src/stm32h7xx_hal_flash_ex.c **** 
 178:Drivers/STM32H7xx_HAL_Driver/Src/stm32h7xx_hal_flash_ex.c ****   /* Reset error code */
 179:Drivers/STM32H7xx_HAL_Driver/Src/stm32h7xx_hal_flash_ex.c ****   pFlash.ErrorCode = HAL_FLASH_ERROR_NONE;
 180:Drivers/STM32H7xx_HAL_Driver/Src/stm32h7xx_hal_flash_ex.c **** 
 181:Drivers/STM32H7xx_HAL_Driver/Src/stm32h7xx_hal_flash_ex.c ****   /* Wait for last operation to be completed on Bank1 */
 182:Drivers/STM32H7xx_HAL_Driver/Src/stm32h7xx_hal_flash_ex.c ****   if((pEraseInit->Banks & FLASH_BANK_1) == FLASH_BANK_1)
 183:Drivers/STM32H7xx_HAL_Driver/Src/stm32h7xx_hal_flash_ex.c ****   {
 184:Drivers/STM32H7xx_HAL_Driver/Src/stm32h7xx_hal_flash_ex.c ****     if(FLASH_WaitForLastOperation((uint32_t)FLASH_TIMEOUT_VALUE, FLASH_BANK_1) != HAL_OK)
 185:Drivers/STM32H7xx_HAL_Driver/Src/stm32h7xx_hal_flash_ex.c ****     {
 186:Drivers/STM32H7xx_HAL_Driver/Src/stm32h7xx_hal_flash_ex.c ****       status = HAL_ERROR;
 187:Drivers/STM32H7xx_HAL_Driver/Src/stm32h7xx_hal_flash_ex.c ****     }
 188:Drivers/STM32H7xx_HAL_Driver/Src/stm32h7xx_hal_flash_ex.c ****   }
 189:Drivers/STM32H7xx_HAL_Driver/Src/stm32h7xx_hal_flash_ex.c **** 
 190:Drivers/STM32H7xx_HAL_Driver/Src/stm32h7xx_hal_flash_ex.c ****   /* Wait for last operation to be completed on Bank2 */
 191:Drivers/STM32H7xx_HAL_Driver/Src/stm32h7xx_hal_flash_ex.c ****   if((pEraseInit->Banks & FLASH_BANK_2) == FLASH_BANK_2)
 192:Drivers/STM32H7xx_HAL_Driver/Src/stm32h7xx_hal_flash_ex.c ****   {
 193:Drivers/STM32H7xx_HAL_Driver/Src/stm32h7xx_hal_flash_ex.c ****     if(FLASH_WaitForLastOperation((uint32_t)FLASH_TIMEOUT_VALUE, FLASH_BANK_2) != HAL_OK)
 194:Drivers/STM32H7xx_HAL_Driver/Src/stm32h7xx_hal_flash_ex.c ****     {
 195:Drivers/STM32H7xx_HAL_Driver/Src/stm32h7xx_hal_flash_ex.c ****       status = HAL_ERROR;
 196:Drivers/STM32H7xx_HAL_Driver/Src/stm32h7xx_hal_flash_ex.c ****     }
 197:Drivers/STM32H7xx_HAL_Driver/Src/stm32h7xx_hal_flash_ex.c ****   }
 198:Drivers/STM32H7xx_HAL_Driver/Src/stm32h7xx_hal_flash_ex.c **** 
 199:Drivers/STM32H7xx_HAL_Driver/Src/stm32h7xx_hal_flash_ex.c ****   if(status == HAL_OK)
 200:Drivers/STM32H7xx_HAL_Driver/Src/stm32h7xx_hal_flash_ex.c ****   {
 201:Drivers/STM32H7xx_HAL_Driver/Src/stm32h7xx_hal_flash_ex.c ****     if(pEraseInit->TypeErase == FLASH_TYPEERASE_MASSERASE)
 202:Drivers/STM32H7xx_HAL_Driver/Src/stm32h7xx_hal_flash_ex.c ****     {
ARM GAS  C:\Users\chesn\AppData\Local\Temp\ccAfRyoq.s 			page 5


 203:Drivers/STM32H7xx_HAL_Driver/Src/stm32h7xx_hal_flash_ex.c ****       /* Mass erase to be done */
 204:Drivers/STM32H7xx_HAL_Driver/Src/stm32h7xx_hal_flash_ex.c ****       FLASH_MassErase(pEraseInit->VoltageRange, pEraseInit->Banks);
 205:Drivers/STM32H7xx_HAL_Driver/Src/stm32h7xx_hal_flash_ex.c **** 
 206:Drivers/STM32H7xx_HAL_Driver/Src/stm32h7xx_hal_flash_ex.c ****       /* Wait for last operation to be completed */
 207:Drivers/STM32H7xx_HAL_Driver/Src/stm32h7xx_hal_flash_ex.c ****       if((pEraseInit->Banks & FLASH_BANK_1) == FLASH_BANK_1)
 208:Drivers/STM32H7xx_HAL_Driver/Src/stm32h7xx_hal_flash_ex.c ****       {
 209:Drivers/STM32H7xx_HAL_Driver/Src/stm32h7xx_hal_flash_ex.c ****         if(FLASH_WaitForLastOperation((uint32_t)FLASH_TIMEOUT_VALUE, FLASH_BANK_1) != HAL_OK)
 210:Drivers/STM32H7xx_HAL_Driver/Src/stm32h7xx_hal_flash_ex.c ****         {
 211:Drivers/STM32H7xx_HAL_Driver/Src/stm32h7xx_hal_flash_ex.c ****           status = HAL_ERROR;
 212:Drivers/STM32H7xx_HAL_Driver/Src/stm32h7xx_hal_flash_ex.c ****         }
 213:Drivers/STM32H7xx_HAL_Driver/Src/stm32h7xx_hal_flash_ex.c ****         /* if the erase operation is completed, disable the Bank1 BER Bit */
 214:Drivers/STM32H7xx_HAL_Driver/Src/stm32h7xx_hal_flash_ex.c ****         FLASH->CR1 &= (~FLASH_CR_BER);
 215:Drivers/STM32H7xx_HAL_Driver/Src/stm32h7xx_hal_flash_ex.c ****       }
 216:Drivers/STM32H7xx_HAL_Driver/Src/stm32h7xx_hal_flash_ex.c ****       if((pEraseInit->Banks & FLASH_BANK_2) == FLASH_BANK_2)
 217:Drivers/STM32H7xx_HAL_Driver/Src/stm32h7xx_hal_flash_ex.c ****       {
 218:Drivers/STM32H7xx_HAL_Driver/Src/stm32h7xx_hal_flash_ex.c ****         if(FLASH_WaitForLastOperation((uint32_t)FLASH_TIMEOUT_VALUE, FLASH_BANK_2) != HAL_OK)
 219:Drivers/STM32H7xx_HAL_Driver/Src/stm32h7xx_hal_flash_ex.c ****         {
 220:Drivers/STM32H7xx_HAL_Driver/Src/stm32h7xx_hal_flash_ex.c ****           status = HAL_ERROR;
 221:Drivers/STM32H7xx_HAL_Driver/Src/stm32h7xx_hal_flash_ex.c ****         }
 222:Drivers/STM32H7xx_HAL_Driver/Src/stm32h7xx_hal_flash_ex.c ****         /* if the erase operation is completed, disable the Bank2 BER Bit */
 223:Drivers/STM32H7xx_HAL_Driver/Src/stm32h7xx_hal_flash_ex.c ****         FLASH->CR2 &= (~FLASH_CR_BER);
 224:Drivers/STM32H7xx_HAL_Driver/Src/stm32h7xx_hal_flash_ex.c ****       }
 225:Drivers/STM32H7xx_HAL_Driver/Src/stm32h7xx_hal_flash_ex.c ****     }
 226:Drivers/STM32H7xx_HAL_Driver/Src/stm32h7xx_hal_flash_ex.c ****     else
 227:Drivers/STM32H7xx_HAL_Driver/Src/stm32h7xx_hal_flash_ex.c ****     {
 228:Drivers/STM32H7xx_HAL_Driver/Src/stm32h7xx_hal_flash_ex.c ****       /*Initialization of SectorError variable*/
 229:Drivers/STM32H7xx_HAL_Driver/Src/stm32h7xx_hal_flash_ex.c ****       *SectorError = 0xFFFFFFFFU;
 230:Drivers/STM32H7xx_HAL_Driver/Src/stm32h7xx_hal_flash_ex.c **** 
 231:Drivers/STM32H7xx_HAL_Driver/Src/stm32h7xx_hal_flash_ex.c ****       /* Erase by sector by sector to be done*/
 232:Drivers/STM32H7xx_HAL_Driver/Src/stm32h7xx_hal_flash_ex.c ****       for(sector_index = pEraseInit->Sector; sector_index < (pEraseInit->NbSectors + pEraseInit->Se
 233:Drivers/STM32H7xx_HAL_Driver/Src/stm32h7xx_hal_flash_ex.c ****       {
 234:Drivers/STM32H7xx_HAL_Driver/Src/stm32h7xx_hal_flash_ex.c ****         FLASH_Erase_Sector(sector_index, pEraseInit->Banks, pEraseInit->VoltageRange);
 235:Drivers/STM32H7xx_HAL_Driver/Src/stm32h7xx_hal_flash_ex.c **** 
 236:Drivers/STM32H7xx_HAL_Driver/Src/stm32h7xx_hal_flash_ex.c ****         if((pEraseInit->Banks & FLASH_BANK_1) == FLASH_BANK_1)
 237:Drivers/STM32H7xx_HAL_Driver/Src/stm32h7xx_hal_flash_ex.c ****         {
 238:Drivers/STM32H7xx_HAL_Driver/Src/stm32h7xx_hal_flash_ex.c ****           /* Wait for last operation to be completed */
 239:Drivers/STM32H7xx_HAL_Driver/Src/stm32h7xx_hal_flash_ex.c ****           status = FLASH_WaitForLastOperation((uint32_t)FLASH_TIMEOUT_VALUE, FLASH_BANK_1);
 240:Drivers/STM32H7xx_HAL_Driver/Src/stm32h7xx_hal_flash_ex.c **** 
 241:Drivers/STM32H7xx_HAL_Driver/Src/stm32h7xx_hal_flash_ex.c ****           /* If the erase operation is completed, disable the SER Bit */
 242:Drivers/STM32H7xx_HAL_Driver/Src/stm32h7xx_hal_flash_ex.c ****           FLASH->CR1 &= (~(FLASH_CR_SER | FLASH_CR_SNB));
 243:Drivers/STM32H7xx_HAL_Driver/Src/stm32h7xx_hal_flash_ex.c ****         }
 244:Drivers/STM32H7xx_HAL_Driver/Src/stm32h7xx_hal_flash_ex.c ****         if((pEraseInit->Banks & FLASH_BANK_2) == FLASH_BANK_2)
 245:Drivers/STM32H7xx_HAL_Driver/Src/stm32h7xx_hal_flash_ex.c ****         {
 246:Drivers/STM32H7xx_HAL_Driver/Src/stm32h7xx_hal_flash_ex.c ****           /* Wait for last operation to be completed */
 247:Drivers/STM32H7xx_HAL_Driver/Src/stm32h7xx_hal_flash_ex.c ****           status = FLASH_WaitForLastOperation((uint32_t)FLASH_TIMEOUT_VALUE, FLASH_BANK_2);
 248:Drivers/STM32H7xx_HAL_Driver/Src/stm32h7xx_hal_flash_ex.c **** 
 249:Drivers/STM32H7xx_HAL_Driver/Src/stm32h7xx_hal_flash_ex.c ****           /* If the erase operation is completed, disable the SER Bit */
 250:Drivers/STM32H7xx_HAL_Driver/Src/stm32h7xx_hal_flash_ex.c ****           FLASH->CR2 &= (~(FLASH_CR_SER | FLASH_CR_SNB));
 251:Drivers/STM32H7xx_HAL_Driver/Src/stm32h7xx_hal_flash_ex.c ****         }
 252:Drivers/STM32H7xx_HAL_Driver/Src/stm32h7xx_hal_flash_ex.c **** 
 253:Drivers/STM32H7xx_HAL_Driver/Src/stm32h7xx_hal_flash_ex.c ****         if(status != HAL_OK)
 254:Drivers/STM32H7xx_HAL_Driver/Src/stm32h7xx_hal_flash_ex.c ****         {
 255:Drivers/STM32H7xx_HAL_Driver/Src/stm32h7xx_hal_flash_ex.c ****           /* In case of error, stop erase procedure and return the faulty sector */
 256:Drivers/STM32H7xx_HAL_Driver/Src/stm32h7xx_hal_flash_ex.c ****           *SectorError = sector_index;
 257:Drivers/STM32H7xx_HAL_Driver/Src/stm32h7xx_hal_flash_ex.c ****           break;
 258:Drivers/STM32H7xx_HAL_Driver/Src/stm32h7xx_hal_flash_ex.c ****         }
 259:Drivers/STM32H7xx_HAL_Driver/Src/stm32h7xx_hal_flash_ex.c ****       }
ARM GAS  C:\Users\chesn\AppData\Local\Temp\ccAfRyoq.s 			page 6


 260:Drivers/STM32H7xx_HAL_Driver/Src/stm32h7xx_hal_flash_ex.c ****     }
 261:Drivers/STM32H7xx_HAL_Driver/Src/stm32h7xx_hal_flash_ex.c ****   }
 262:Drivers/STM32H7xx_HAL_Driver/Src/stm32h7xx_hal_flash_ex.c **** 
 263:Drivers/STM32H7xx_HAL_Driver/Src/stm32h7xx_hal_flash_ex.c ****   /* Process Unlocked */
 264:Drivers/STM32H7xx_HAL_Driver/Src/stm32h7xx_hal_flash_ex.c ****   __HAL_UNLOCK(&pFlash);
 265:Drivers/STM32H7xx_HAL_Driver/Src/stm32h7xx_hal_flash_ex.c **** 
 266:Drivers/STM32H7xx_HAL_Driver/Src/stm32h7xx_hal_flash_ex.c ****   return status;
 267:Drivers/STM32H7xx_HAL_Driver/Src/stm32h7xx_hal_flash_ex.c **** }
 268:Drivers/STM32H7xx_HAL_Driver/Src/stm32h7xx_hal_flash_ex.c **** 
 269:Drivers/STM32H7xx_HAL_Driver/Src/stm32h7xx_hal_flash_ex.c **** /**
 270:Drivers/STM32H7xx_HAL_Driver/Src/stm32h7xx_hal_flash_ex.c ****   * @brief  Perform a mass erase or erase the specified FLASH memory sectors with interrupt enabled
 271:Drivers/STM32H7xx_HAL_Driver/Src/stm32h7xx_hal_flash_ex.c ****   * @param  pEraseInit pointer to an FLASH_EraseInitTypeDef structure that
 272:Drivers/STM32H7xx_HAL_Driver/Src/stm32h7xx_hal_flash_ex.c ****   *         contains the configuration information for the erasing.
 273:Drivers/STM32H7xx_HAL_Driver/Src/stm32h7xx_hal_flash_ex.c ****   *
 274:Drivers/STM32H7xx_HAL_Driver/Src/stm32h7xx_hal_flash_ex.c ****   * @retval HAL Status
 275:Drivers/STM32H7xx_HAL_Driver/Src/stm32h7xx_hal_flash_ex.c ****   */
 276:Drivers/STM32H7xx_HAL_Driver/Src/stm32h7xx_hal_flash_ex.c **** HAL_StatusTypeDef HAL_FLASHEx_Erase_IT(FLASH_EraseInitTypeDef *pEraseInit)
 277:Drivers/STM32H7xx_HAL_Driver/Src/stm32h7xx_hal_flash_ex.c **** {
 278:Drivers/STM32H7xx_HAL_Driver/Src/stm32h7xx_hal_flash_ex.c ****   HAL_StatusTypeDef status = HAL_OK;
 279:Drivers/STM32H7xx_HAL_Driver/Src/stm32h7xx_hal_flash_ex.c **** 
 280:Drivers/STM32H7xx_HAL_Driver/Src/stm32h7xx_hal_flash_ex.c ****   /* Check the parameters */
 281:Drivers/STM32H7xx_HAL_Driver/Src/stm32h7xx_hal_flash_ex.c ****   assert_param(IS_FLASH_TYPEERASE(pEraseInit->TypeErase));
 282:Drivers/STM32H7xx_HAL_Driver/Src/stm32h7xx_hal_flash_ex.c ****   assert_param(IS_FLASH_BANK(pEraseInit->Banks));
 283:Drivers/STM32H7xx_HAL_Driver/Src/stm32h7xx_hal_flash_ex.c **** 
 284:Drivers/STM32H7xx_HAL_Driver/Src/stm32h7xx_hal_flash_ex.c ****   /* Process Locked */
 285:Drivers/STM32H7xx_HAL_Driver/Src/stm32h7xx_hal_flash_ex.c ****   __HAL_LOCK(&pFlash);
 286:Drivers/STM32H7xx_HAL_Driver/Src/stm32h7xx_hal_flash_ex.c **** 
 287:Drivers/STM32H7xx_HAL_Driver/Src/stm32h7xx_hal_flash_ex.c ****   /* Reset error code */
 288:Drivers/STM32H7xx_HAL_Driver/Src/stm32h7xx_hal_flash_ex.c ****   pFlash.ErrorCode = HAL_FLASH_ERROR_NONE;
 289:Drivers/STM32H7xx_HAL_Driver/Src/stm32h7xx_hal_flash_ex.c **** 
 290:Drivers/STM32H7xx_HAL_Driver/Src/stm32h7xx_hal_flash_ex.c ****   /* Wait for last operation to be completed */
 291:Drivers/STM32H7xx_HAL_Driver/Src/stm32h7xx_hal_flash_ex.c ****   if((pEraseInit->Banks & FLASH_BANK_1) == FLASH_BANK_1)
 292:Drivers/STM32H7xx_HAL_Driver/Src/stm32h7xx_hal_flash_ex.c ****   {
 293:Drivers/STM32H7xx_HAL_Driver/Src/stm32h7xx_hal_flash_ex.c ****     if(FLASH_WaitForLastOperation((uint32_t)FLASH_TIMEOUT_VALUE, FLASH_BANK_1) != HAL_OK)
 294:Drivers/STM32H7xx_HAL_Driver/Src/stm32h7xx_hal_flash_ex.c ****     {
 295:Drivers/STM32H7xx_HAL_Driver/Src/stm32h7xx_hal_flash_ex.c ****       status = HAL_ERROR;
 296:Drivers/STM32H7xx_HAL_Driver/Src/stm32h7xx_hal_flash_ex.c ****     }
 297:Drivers/STM32H7xx_HAL_Driver/Src/stm32h7xx_hal_flash_ex.c ****   }
 298:Drivers/STM32H7xx_HAL_Driver/Src/stm32h7xx_hal_flash_ex.c **** 
 299:Drivers/STM32H7xx_HAL_Driver/Src/stm32h7xx_hal_flash_ex.c ****   if((pEraseInit->Banks & FLASH_BANK_2) == FLASH_BANK_2)
 300:Drivers/STM32H7xx_HAL_Driver/Src/stm32h7xx_hal_flash_ex.c ****   {
 301:Drivers/STM32H7xx_HAL_Driver/Src/stm32h7xx_hal_flash_ex.c ****     if(FLASH_WaitForLastOperation((uint32_t)FLASH_TIMEOUT_VALUE, FLASH_BANK_2) != HAL_OK)
 302:Drivers/STM32H7xx_HAL_Driver/Src/stm32h7xx_hal_flash_ex.c ****     {
 303:Drivers/STM32H7xx_HAL_Driver/Src/stm32h7xx_hal_flash_ex.c ****       status = HAL_ERROR;
 304:Drivers/STM32H7xx_HAL_Driver/Src/stm32h7xx_hal_flash_ex.c ****     }
 305:Drivers/STM32H7xx_HAL_Driver/Src/stm32h7xx_hal_flash_ex.c ****   }
 306:Drivers/STM32H7xx_HAL_Driver/Src/stm32h7xx_hal_flash_ex.c **** 
 307:Drivers/STM32H7xx_HAL_Driver/Src/stm32h7xx_hal_flash_ex.c ****   if (status != HAL_OK)
 308:Drivers/STM32H7xx_HAL_Driver/Src/stm32h7xx_hal_flash_ex.c ****   {
 309:Drivers/STM32H7xx_HAL_Driver/Src/stm32h7xx_hal_flash_ex.c ****     /* Process Unlocked */
 310:Drivers/STM32H7xx_HAL_Driver/Src/stm32h7xx_hal_flash_ex.c ****     __HAL_UNLOCK(&pFlash);
 311:Drivers/STM32H7xx_HAL_Driver/Src/stm32h7xx_hal_flash_ex.c ****   }
 312:Drivers/STM32H7xx_HAL_Driver/Src/stm32h7xx_hal_flash_ex.c ****   else
 313:Drivers/STM32H7xx_HAL_Driver/Src/stm32h7xx_hal_flash_ex.c ****   {
 314:Drivers/STM32H7xx_HAL_Driver/Src/stm32h7xx_hal_flash_ex.c ****     if((pEraseInit->Banks & FLASH_BANK_1) == FLASH_BANK_1)
 315:Drivers/STM32H7xx_HAL_Driver/Src/stm32h7xx_hal_flash_ex.c ****     {
 316:Drivers/STM32H7xx_HAL_Driver/Src/stm32h7xx_hal_flash_ex.c ****       /* Enable End of Operation and Error interrupts for Bank 1 */
ARM GAS  C:\Users\chesn\AppData\Local\Temp\ccAfRyoq.s 			page 7


 317:Drivers/STM32H7xx_HAL_Driver/Src/stm32h7xx_hal_flash_ex.c **** #if defined (FLASH_CR_OPERRIE)
 318:Drivers/STM32H7xx_HAL_Driver/Src/stm32h7xx_hal_flash_ex.c ****       __HAL_FLASH_ENABLE_IT_BANK1(FLASH_IT_EOP_BANK1     | FLASH_IT_WRPERR_BANK1 | FLASH_IT_PGSERR_
 319:Drivers/STM32H7xx_HAL_Driver/Src/stm32h7xx_hal_flash_ex.c ****                                   FLASH_IT_STRBERR_BANK1 | FLASH_IT_INCERR_BANK1 | FLASH_IT_OPERR_B
 320:Drivers/STM32H7xx_HAL_Driver/Src/stm32h7xx_hal_flash_ex.c **** #else
 321:Drivers/STM32H7xx_HAL_Driver/Src/stm32h7xx_hal_flash_ex.c ****       __HAL_FLASH_ENABLE_IT_BANK1(FLASH_IT_EOP_BANK1     | FLASH_IT_WRPERR_BANK1 | FLASH_IT_PGSERR_
 322:Drivers/STM32H7xx_HAL_Driver/Src/stm32h7xx_hal_flash_ex.c ****                                   FLASH_IT_STRBERR_BANK1 | FLASH_IT_INCERR_BANK1);
 323:Drivers/STM32H7xx_HAL_Driver/Src/stm32h7xx_hal_flash_ex.c **** #endif /* FLASH_CR_OPERRIE */
 324:Drivers/STM32H7xx_HAL_Driver/Src/stm32h7xx_hal_flash_ex.c ****     }
 325:Drivers/STM32H7xx_HAL_Driver/Src/stm32h7xx_hal_flash_ex.c ****     if((pEraseInit->Banks & FLASH_BANK_2) == FLASH_BANK_2)
 326:Drivers/STM32H7xx_HAL_Driver/Src/stm32h7xx_hal_flash_ex.c ****     {
 327:Drivers/STM32H7xx_HAL_Driver/Src/stm32h7xx_hal_flash_ex.c ****       /* Enable End of Operation and Error interrupts for Bank 2 */
 328:Drivers/STM32H7xx_HAL_Driver/Src/stm32h7xx_hal_flash_ex.c **** #if defined (FLASH_CR_OPERRIE)
 329:Drivers/STM32H7xx_HAL_Driver/Src/stm32h7xx_hal_flash_ex.c ****       __HAL_FLASH_ENABLE_IT_BANK2(FLASH_IT_EOP_BANK2     | FLASH_IT_WRPERR_BANK2 | FLASH_IT_PGSERR_
 330:Drivers/STM32H7xx_HAL_Driver/Src/stm32h7xx_hal_flash_ex.c ****                                   FLASH_IT_STRBERR_BANK2 | FLASH_IT_INCERR_BANK2 | FLASH_IT_OPERR_B
 331:Drivers/STM32H7xx_HAL_Driver/Src/stm32h7xx_hal_flash_ex.c **** #else
 332:Drivers/STM32H7xx_HAL_Driver/Src/stm32h7xx_hal_flash_ex.c ****       __HAL_FLASH_ENABLE_IT_BANK2(FLASH_IT_EOP_BANK2     | FLASH_IT_WRPERR_BANK2 | FLASH_IT_PGSERR_
 333:Drivers/STM32H7xx_HAL_Driver/Src/stm32h7xx_hal_flash_ex.c ****                                   FLASH_IT_STRBERR_BANK2 | FLASH_IT_INCERR_BANK2);
 334:Drivers/STM32H7xx_HAL_Driver/Src/stm32h7xx_hal_flash_ex.c **** #endif /* FLASH_CR_OPERRIE */
 335:Drivers/STM32H7xx_HAL_Driver/Src/stm32h7xx_hal_flash_ex.c ****     }
 336:Drivers/STM32H7xx_HAL_Driver/Src/stm32h7xx_hal_flash_ex.c **** 
 337:Drivers/STM32H7xx_HAL_Driver/Src/stm32h7xx_hal_flash_ex.c ****     if(pEraseInit->TypeErase == FLASH_TYPEERASE_MASSERASE)
 338:Drivers/STM32H7xx_HAL_Driver/Src/stm32h7xx_hal_flash_ex.c ****     {
 339:Drivers/STM32H7xx_HAL_Driver/Src/stm32h7xx_hal_flash_ex.c ****       /*Mass erase to be done*/
 340:Drivers/STM32H7xx_HAL_Driver/Src/stm32h7xx_hal_flash_ex.c ****       if(pEraseInit->Banks == FLASH_BANK_1)
 341:Drivers/STM32H7xx_HAL_Driver/Src/stm32h7xx_hal_flash_ex.c ****       {
 342:Drivers/STM32H7xx_HAL_Driver/Src/stm32h7xx_hal_flash_ex.c ****         pFlash.ProcedureOnGoing = FLASH_PROC_MASSERASE_BANK1;
 343:Drivers/STM32H7xx_HAL_Driver/Src/stm32h7xx_hal_flash_ex.c ****       }
 344:Drivers/STM32H7xx_HAL_Driver/Src/stm32h7xx_hal_flash_ex.c ****       else if(pEraseInit->Banks == FLASH_BANK_2)
 345:Drivers/STM32H7xx_HAL_Driver/Src/stm32h7xx_hal_flash_ex.c ****       {
 346:Drivers/STM32H7xx_HAL_Driver/Src/stm32h7xx_hal_flash_ex.c ****         pFlash.ProcedureOnGoing = FLASH_PROC_MASSERASE_BANK2;
 347:Drivers/STM32H7xx_HAL_Driver/Src/stm32h7xx_hal_flash_ex.c ****       }
 348:Drivers/STM32H7xx_HAL_Driver/Src/stm32h7xx_hal_flash_ex.c ****       else
 349:Drivers/STM32H7xx_HAL_Driver/Src/stm32h7xx_hal_flash_ex.c ****       {
 350:Drivers/STM32H7xx_HAL_Driver/Src/stm32h7xx_hal_flash_ex.c ****         pFlash.ProcedureOnGoing = FLASH_PROC_ALLBANK_MASSERASE;
 351:Drivers/STM32H7xx_HAL_Driver/Src/stm32h7xx_hal_flash_ex.c ****       }
 352:Drivers/STM32H7xx_HAL_Driver/Src/stm32h7xx_hal_flash_ex.c **** 
 353:Drivers/STM32H7xx_HAL_Driver/Src/stm32h7xx_hal_flash_ex.c ****       FLASH_MassErase(pEraseInit->VoltageRange, pEraseInit->Banks);
 354:Drivers/STM32H7xx_HAL_Driver/Src/stm32h7xx_hal_flash_ex.c ****     }
 355:Drivers/STM32H7xx_HAL_Driver/Src/stm32h7xx_hal_flash_ex.c ****     else
 356:Drivers/STM32H7xx_HAL_Driver/Src/stm32h7xx_hal_flash_ex.c ****     {
 357:Drivers/STM32H7xx_HAL_Driver/Src/stm32h7xx_hal_flash_ex.c ****       /* Erase by sector to be done */
 358:Drivers/STM32H7xx_HAL_Driver/Src/stm32h7xx_hal_flash_ex.c ****       if(pEraseInit->Banks == FLASH_BANK_1)
 359:Drivers/STM32H7xx_HAL_Driver/Src/stm32h7xx_hal_flash_ex.c ****       {
 360:Drivers/STM32H7xx_HAL_Driver/Src/stm32h7xx_hal_flash_ex.c ****         pFlash.ProcedureOnGoing = FLASH_PROC_SECTERASE_BANK1;
 361:Drivers/STM32H7xx_HAL_Driver/Src/stm32h7xx_hal_flash_ex.c ****       }
 362:Drivers/STM32H7xx_HAL_Driver/Src/stm32h7xx_hal_flash_ex.c ****       else
 363:Drivers/STM32H7xx_HAL_Driver/Src/stm32h7xx_hal_flash_ex.c ****       {
 364:Drivers/STM32H7xx_HAL_Driver/Src/stm32h7xx_hal_flash_ex.c ****         pFlash.ProcedureOnGoing = FLASH_PROC_SECTERASE_BANK2;
 365:Drivers/STM32H7xx_HAL_Driver/Src/stm32h7xx_hal_flash_ex.c ****       }
 366:Drivers/STM32H7xx_HAL_Driver/Src/stm32h7xx_hal_flash_ex.c **** 
 367:Drivers/STM32H7xx_HAL_Driver/Src/stm32h7xx_hal_flash_ex.c ****       pFlash.NbSectorsToErase = pEraseInit->NbSectors;
 368:Drivers/STM32H7xx_HAL_Driver/Src/stm32h7xx_hal_flash_ex.c ****       pFlash.Sector = pEraseInit->Sector;
 369:Drivers/STM32H7xx_HAL_Driver/Src/stm32h7xx_hal_flash_ex.c ****       pFlash.VoltageForErase = pEraseInit->VoltageRange;
 370:Drivers/STM32H7xx_HAL_Driver/Src/stm32h7xx_hal_flash_ex.c **** 
 371:Drivers/STM32H7xx_HAL_Driver/Src/stm32h7xx_hal_flash_ex.c ****       /* Erase first sector and wait for IT */
 372:Drivers/STM32H7xx_HAL_Driver/Src/stm32h7xx_hal_flash_ex.c ****       FLASH_Erase_Sector(pEraseInit->Sector, pEraseInit->Banks, pEraseInit->VoltageRange);
 373:Drivers/STM32H7xx_HAL_Driver/Src/stm32h7xx_hal_flash_ex.c ****     }
ARM GAS  C:\Users\chesn\AppData\Local\Temp\ccAfRyoq.s 			page 8


 374:Drivers/STM32H7xx_HAL_Driver/Src/stm32h7xx_hal_flash_ex.c ****   }
 375:Drivers/STM32H7xx_HAL_Driver/Src/stm32h7xx_hal_flash_ex.c **** 
 376:Drivers/STM32H7xx_HAL_Driver/Src/stm32h7xx_hal_flash_ex.c ****   return status;
 377:Drivers/STM32H7xx_HAL_Driver/Src/stm32h7xx_hal_flash_ex.c **** }
 378:Drivers/STM32H7xx_HAL_Driver/Src/stm32h7xx_hal_flash_ex.c **** 
 379:Drivers/STM32H7xx_HAL_Driver/Src/stm32h7xx_hal_flash_ex.c **** /**
 380:Drivers/STM32H7xx_HAL_Driver/Src/stm32h7xx_hal_flash_ex.c ****   * @brief  Program option bytes
 381:Drivers/STM32H7xx_HAL_Driver/Src/stm32h7xx_hal_flash_ex.c ****   * @param  pOBInit pointer to an FLASH_OBInitStruct structure that
 382:Drivers/STM32H7xx_HAL_Driver/Src/stm32h7xx_hal_flash_ex.c ****   *         contains the configuration information for the programming.
 383:Drivers/STM32H7xx_HAL_Driver/Src/stm32h7xx_hal_flash_ex.c ****   *
 384:Drivers/STM32H7xx_HAL_Driver/Src/stm32h7xx_hal_flash_ex.c ****   * @retval HAL Status
 385:Drivers/STM32H7xx_HAL_Driver/Src/stm32h7xx_hal_flash_ex.c ****   */
 386:Drivers/STM32H7xx_HAL_Driver/Src/stm32h7xx_hal_flash_ex.c **** HAL_StatusTypeDef HAL_FLASHEx_OBProgram(FLASH_OBProgramInitTypeDef *pOBInit)
 387:Drivers/STM32H7xx_HAL_Driver/Src/stm32h7xx_hal_flash_ex.c **** {
 388:Drivers/STM32H7xx_HAL_Driver/Src/stm32h7xx_hal_flash_ex.c ****   HAL_StatusTypeDef status;
 389:Drivers/STM32H7xx_HAL_Driver/Src/stm32h7xx_hal_flash_ex.c **** 
 390:Drivers/STM32H7xx_HAL_Driver/Src/stm32h7xx_hal_flash_ex.c ****   /* Check the parameters */
 391:Drivers/STM32H7xx_HAL_Driver/Src/stm32h7xx_hal_flash_ex.c ****   assert_param(IS_OPTIONBYTE(pOBInit->OptionType));
 392:Drivers/STM32H7xx_HAL_Driver/Src/stm32h7xx_hal_flash_ex.c **** 
 393:Drivers/STM32H7xx_HAL_Driver/Src/stm32h7xx_hal_flash_ex.c ****   /* Process Locked */
 394:Drivers/STM32H7xx_HAL_Driver/Src/stm32h7xx_hal_flash_ex.c ****   __HAL_LOCK(&pFlash);
 395:Drivers/STM32H7xx_HAL_Driver/Src/stm32h7xx_hal_flash_ex.c **** 
 396:Drivers/STM32H7xx_HAL_Driver/Src/stm32h7xx_hal_flash_ex.c ****   /* Reset Error Code */
 397:Drivers/STM32H7xx_HAL_Driver/Src/stm32h7xx_hal_flash_ex.c ****   pFlash.ErrorCode = HAL_FLASH_ERROR_NONE;
 398:Drivers/STM32H7xx_HAL_Driver/Src/stm32h7xx_hal_flash_ex.c **** 
 399:Drivers/STM32H7xx_HAL_Driver/Src/stm32h7xx_hal_flash_ex.c ****   /* Wait for last operation to be completed */
 400:Drivers/STM32H7xx_HAL_Driver/Src/stm32h7xx_hal_flash_ex.c ****   if(FLASH_WaitForLastOperation((uint32_t)FLASH_TIMEOUT_VALUE, FLASH_BANK_1) != HAL_OK)
 401:Drivers/STM32H7xx_HAL_Driver/Src/stm32h7xx_hal_flash_ex.c ****   {
 402:Drivers/STM32H7xx_HAL_Driver/Src/stm32h7xx_hal_flash_ex.c ****     status = HAL_ERROR;
 403:Drivers/STM32H7xx_HAL_Driver/Src/stm32h7xx_hal_flash_ex.c ****   }
 404:Drivers/STM32H7xx_HAL_Driver/Src/stm32h7xx_hal_flash_ex.c ****   else if(FLASH_WaitForLastOperation((uint32_t)FLASH_TIMEOUT_VALUE, FLASH_BANK_2) != HAL_OK)
 405:Drivers/STM32H7xx_HAL_Driver/Src/stm32h7xx_hal_flash_ex.c ****   {
 406:Drivers/STM32H7xx_HAL_Driver/Src/stm32h7xx_hal_flash_ex.c ****     status = HAL_ERROR;
 407:Drivers/STM32H7xx_HAL_Driver/Src/stm32h7xx_hal_flash_ex.c ****   }
 408:Drivers/STM32H7xx_HAL_Driver/Src/stm32h7xx_hal_flash_ex.c ****   else
 409:Drivers/STM32H7xx_HAL_Driver/Src/stm32h7xx_hal_flash_ex.c ****   {
 410:Drivers/STM32H7xx_HAL_Driver/Src/stm32h7xx_hal_flash_ex.c ****     status = HAL_OK;
 411:Drivers/STM32H7xx_HAL_Driver/Src/stm32h7xx_hal_flash_ex.c ****   }
 412:Drivers/STM32H7xx_HAL_Driver/Src/stm32h7xx_hal_flash_ex.c **** 
 413:Drivers/STM32H7xx_HAL_Driver/Src/stm32h7xx_hal_flash_ex.c ****   if(status == HAL_OK)
 414:Drivers/STM32H7xx_HAL_Driver/Src/stm32h7xx_hal_flash_ex.c ****   {
 415:Drivers/STM32H7xx_HAL_Driver/Src/stm32h7xx_hal_flash_ex.c ****     /*Write protection configuration*/
 416:Drivers/STM32H7xx_HAL_Driver/Src/stm32h7xx_hal_flash_ex.c ****     if((pOBInit->OptionType & OPTIONBYTE_WRP) == OPTIONBYTE_WRP)
 417:Drivers/STM32H7xx_HAL_Driver/Src/stm32h7xx_hal_flash_ex.c ****     {
 418:Drivers/STM32H7xx_HAL_Driver/Src/stm32h7xx_hal_flash_ex.c ****       assert_param(IS_WRPSTATE(pOBInit->WRPState));
 419:Drivers/STM32H7xx_HAL_Driver/Src/stm32h7xx_hal_flash_ex.c **** 
 420:Drivers/STM32H7xx_HAL_Driver/Src/stm32h7xx_hal_flash_ex.c ****       if(pOBInit->WRPState == OB_WRPSTATE_ENABLE)
 421:Drivers/STM32H7xx_HAL_Driver/Src/stm32h7xx_hal_flash_ex.c ****       {
 422:Drivers/STM32H7xx_HAL_Driver/Src/stm32h7xx_hal_flash_ex.c ****         /*Enable of Write protection on the selected Sector*/
 423:Drivers/STM32H7xx_HAL_Driver/Src/stm32h7xx_hal_flash_ex.c ****         FLASH_OB_EnableWRP(pOBInit->WRPSector,pOBInit->Banks);
 424:Drivers/STM32H7xx_HAL_Driver/Src/stm32h7xx_hal_flash_ex.c ****       }
 425:Drivers/STM32H7xx_HAL_Driver/Src/stm32h7xx_hal_flash_ex.c ****       else
 426:Drivers/STM32H7xx_HAL_Driver/Src/stm32h7xx_hal_flash_ex.c ****       {
 427:Drivers/STM32H7xx_HAL_Driver/Src/stm32h7xx_hal_flash_ex.c ****         /*Disable of Write protection on the selected Sector*/
 428:Drivers/STM32H7xx_HAL_Driver/Src/stm32h7xx_hal_flash_ex.c ****         FLASH_OB_DisableWRP(pOBInit->WRPSector, pOBInit->Banks);
 429:Drivers/STM32H7xx_HAL_Driver/Src/stm32h7xx_hal_flash_ex.c ****       }
 430:Drivers/STM32H7xx_HAL_Driver/Src/stm32h7xx_hal_flash_ex.c ****     }
ARM GAS  C:\Users\chesn\AppData\Local\Temp\ccAfRyoq.s 			page 9


 431:Drivers/STM32H7xx_HAL_Driver/Src/stm32h7xx_hal_flash_ex.c **** 
 432:Drivers/STM32H7xx_HAL_Driver/Src/stm32h7xx_hal_flash_ex.c ****     /* Read protection configuration */
 433:Drivers/STM32H7xx_HAL_Driver/Src/stm32h7xx_hal_flash_ex.c ****     if((pOBInit->OptionType & OPTIONBYTE_RDP) != 0U)
 434:Drivers/STM32H7xx_HAL_Driver/Src/stm32h7xx_hal_flash_ex.c ****     {
 435:Drivers/STM32H7xx_HAL_Driver/Src/stm32h7xx_hal_flash_ex.c ****       /* Configure the Read protection level */
 436:Drivers/STM32H7xx_HAL_Driver/Src/stm32h7xx_hal_flash_ex.c ****       FLASH_OB_RDPConfig(pOBInit->RDPLevel);
 437:Drivers/STM32H7xx_HAL_Driver/Src/stm32h7xx_hal_flash_ex.c ****     }
 438:Drivers/STM32H7xx_HAL_Driver/Src/stm32h7xx_hal_flash_ex.c **** 
 439:Drivers/STM32H7xx_HAL_Driver/Src/stm32h7xx_hal_flash_ex.c ****     /* User Configuration */
 440:Drivers/STM32H7xx_HAL_Driver/Src/stm32h7xx_hal_flash_ex.c ****     if((pOBInit->OptionType & OPTIONBYTE_USER) != 0U)
 441:Drivers/STM32H7xx_HAL_Driver/Src/stm32h7xx_hal_flash_ex.c ****     {
 442:Drivers/STM32H7xx_HAL_Driver/Src/stm32h7xx_hal_flash_ex.c ****       /* Configure the user option bytes */
 443:Drivers/STM32H7xx_HAL_Driver/Src/stm32h7xx_hal_flash_ex.c ****       FLASH_OB_UserConfig(pOBInit->USERType, pOBInit->USERConfig);
 444:Drivers/STM32H7xx_HAL_Driver/Src/stm32h7xx_hal_flash_ex.c ****     }
 445:Drivers/STM32H7xx_HAL_Driver/Src/stm32h7xx_hal_flash_ex.c **** 
 446:Drivers/STM32H7xx_HAL_Driver/Src/stm32h7xx_hal_flash_ex.c ****     /* PCROP Configuration */
 447:Drivers/STM32H7xx_HAL_Driver/Src/stm32h7xx_hal_flash_ex.c ****     if((pOBInit->OptionType & OPTIONBYTE_PCROP) != 0U)
 448:Drivers/STM32H7xx_HAL_Driver/Src/stm32h7xx_hal_flash_ex.c ****     {
 449:Drivers/STM32H7xx_HAL_Driver/Src/stm32h7xx_hal_flash_ex.c ****       assert_param(IS_FLASH_BANK(pOBInit->Banks));
 450:Drivers/STM32H7xx_HAL_Driver/Src/stm32h7xx_hal_flash_ex.c **** 
 451:Drivers/STM32H7xx_HAL_Driver/Src/stm32h7xx_hal_flash_ex.c ****       /*Configure the Proprietary code readout protection */
 452:Drivers/STM32H7xx_HAL_Driver/Src/stm32h7xx_hal_flash_ex.c ****       FLASH_OB_PCROPConfig(pOBInit->PCROPConfig, pOBInit->PCROPStartAddr, pOBInit->PCROPEndAddr, pO
 453:Drivers/STM32H7xx_HAL_Driver/Src/stm32h7xx_hal_flash_ex.c ****     }
 454:Drivers/STM32H7xx_HAL_Driver/Src/stm32h7xx_hal_flash_ex.c **** 
 455:Drivers/STM32H7xx_HAL_Driver/Src/stm32h7xx_hal_flash_ex.c ****     /* BOR Level configuration */
 456:Drivers/STM32H7xx_HAL_Driver/Src/stm32h7xx_hal_flash_ex.c ****     if((pOBInit->OptionType & OPTIONBYTE_BOR) == OPTIONBYTE_BOR)
 457:Drivers/STM32H7xx_HAL_Driver/Src/stm32h7xx_hal_flash_ex.c ****     {
 458:Drivers/STM32H7xx_HAL_Driver/Src/stm32h7xx_hal_flash_ex.c ****       FLASH_OB_BOR_LevelConfig(pOBInit->BORLevel);
 459:Drivers/STM32H7xx_HAL_Driver/Src/stm32h7xx_hal_flash_ex.c ****     }
 460:Drivers/STM32H7xx_HAL_Driver/Src/stm32h7xx_hal_flash_ex.c **** 
 461:Drivers/STM32H7xx_HAL_Driver/Src/stm32h7xx_hal_flash_ex.c **** #if defined(DUAL_CORE)
 462:Drivers/STM32H7xx_HAL_Driver/Src/stm32h7xx_hal_flash_ex.c ****     /* CM7 Boot Address  configuration */
 463:Drivers/STM32H7xx_HAL_Driver/Src/stm32h7xx_hal_flash_ex.c ****     if((pOBInit->OptionType & OPTIONBYTE_CM7_BOOTADD) == OPTIONBYTE_CM7_BOOTADD)
 464:Drivers/STM32H7xx_HAL_Driver/Src/stm32h7xx_hal_flash_ex.c ****     {
 465:Drivers/STM32H7xx_HAL_Driver/Src/stm32h7xx_hal_flash_ex.c ****       FLASH_OB_BootAddConfig(pOBInit->BootConfig, pOBInit->BootAddr0, pOBInit->BootAddr1);
 466:Drivers/STM32H7xx_HAL_Driver/Src/stm32h7xx_hal_flash_ex.c ****     }
 467:Drivers/STM32H7xx_HAL_Driver/Src/stm32h7xx_hal_flash_ex.c **** 
 468:Drivers/STM32H7xx_HAL_Driver/Src/stm32h7xx_hal_flash_ex.c ****     /* CM4 Boot Address  configuration */
 469:Drivers/STM32H7xx_HAL_Driver/Src/stm32h7xx_hal_flash_ex.c ****     if((pOBInit->OptionType & OPTIONBYTE_CM4_BOOTADD) == OPTIONBYTE_CM4_BOOTADD)
 470:Drivers/STM32H7xx_HAL_Driver/Src/stm32h7xx_hal_flash_ex.c ****     {
 471:Drivers/STM32H7xx_HAL_Driver/Src/stm32h7xx_hal_flash_ex.c ****       FLASH_OB_CM4BootAddConfig(pOBInit->CM4BootConfig, pOBInit->CM4BootAddr0, pOBInit->CM4BootAddr
 472:Drivers/STM32H7xx_HAL_Driver/Src/stm32h7xx_hal_flash_ex.c ****     }
 473:Drivers/STM32H7xx_HAL_Driver/Src/stm32h7xx_hal_flash_ex.c **** #else /* Single Core*/
 474:Drivers/STM32H7xx_HAL_Driver/Src/stm32h7xx_hal_flash_ex.c ****     /* Boot Address  configuration */
 475:Drivers/STM32H7xx_HAL_Driver/Src/stm32h7xx_hal_flash_ex.c ****     if((pOBInit->OptionType & OPTIONBYTE_BOOTADD) == OPTIONBYTE_BOOTADD)
 476:Drivers/STM32H7xx_HAL_Driver/Src/stm32h7xx_hal_flash_ex.c ****     {
 477:Drivers/STM32H7xx_HAL_Driver/Src/stm32h7xx_hal_flash_ex.c ****       FLASH_OB_BootAddConfig(pOBInit->BootConfig, pOBInit->BootAddr0, pOBInit->BootAddr1);
 478:Drivers/STM32H7xx_HAL_Driver/Src/stm32h7xx_hal_flash_ex.c ****     }
 479:Drivers/STM32H7xx_HAL_Driver/Src/stm32h7xx_hal_flash_ex.c **** #endif /*DUAL_CORE*/
 480:Drivers/STM32H7xx_HAL_Driver/Src/stm32h7xx_hal_flash_ex.c **** 
 481:Drivers/STM32H7xx_HAL_Driver/Src/stm32h7xx_hal_flash_ex.c ****     /* Secure area configuration */
 482:Drivers/STM32H7xx_HAL_Driver/Src/stm32h7xx_hal_flash_ex.c ****     if((pOBInit->OptionType & OPTIONBYTE_SECURE_AREA) == OPTIONBYTE_SECURE_AREA)
 483:Drivers/STM32H7xx_HAL_Driver/Src/stm32h7xx_hal_flash_ex.c ****     {
 484:Drivers/STM32H7xx_HAL_Driver/Src/stm32h7xx_hal_flash_ex.c ****       FLASH_OB_SecureAreaConfig(pOBInit->SecureAreaConfig, pOBInit->SecureAreaStartAddr, pOBInit->S
 485:Drivers/STM32H7xx_HAL_Driver/Src/stm32h7xx_hal_flash_ex.c ****     }
 486:Drivers/STM32H7xx_HAL_Driver/Src/stm32h7xx_hal_flash_ex.c **** 
 487:Drivers/STM32H7xx_HAL_Driver/Src/stm32h7xx_hal_flash_ex.c **** #if defined(FLASH_OTPBL_LOCKBL)
ARM GAS  C:\Users\chesn\AppData\Local\Temp\ccAfRyoq.s 			page 10


 488:Drivers/STM32H7xx_HAL_Driver/Src/stm32h7xx_hal_flash_ex.c ****     /* OTP Block Lock configuration */
 489:Drivers/STM32H7xx_HAL_Driver/Src/stm32h7xx_hal_flash_ex.c ****     if((pOBInit->OptionType & OPTIONBYTE_OTP_LOCK) == OPTIONBYTE_OTP_LOCK)
 490:Drivers/STM32H7xx_HAL_Driver/Src/stm32h7xx_hal_flash_ex.c ****     {
 491:Drivers/STM32H7xx_HAL_Driver/Src/stm32h7xx_hal_flash_ex.c ****       FLASH_OB_OTP_LockConfig(pOBInit->OTPBlockLock);
 492:Drivers/STM32H7xx_HAL_Driver/Src/stm32h7xx_hal_flash_ex.c ****     }
 493:Drivers/STM32H7xx_HAL_Driver/Src/stm32h7xx_hal_flash_ex.c **** #endif /* FLASH_OTPBL_LOCKBL */
 494:Drivers/STM32H7xx_HAL_Driver/Src/stm32h7xx_hal_flash_ex.c ****   }
 495:Drivers/STM32H7xx_HAL_Driver/Src/stm32h7xx_hal_flash_ex.c **** 
 496:Drivers/STM32H7xx_HAL_Driver/Src/stm32h7xx_hal_flash_ex.c ****   /* Process Unlocked */
 497:Drivers/STM32H7xx_HAL_Driver/Src/stm32h7xx_hal_flash_ex.c ****   __HAL_UNLOCK(&pFlash);
 498:Drivers/STM32H7xx_HAL_Driver/Src/stm32h7xx_hal_flash_ex.c **** 
 499:Drivers/STM32H7xx_HAL_Driver/Src/stm32h7xx_hal_flash_ex.c ****   return status;
 500:Drivers/STM32H7xx_HAL_Driver/Src/stm32h7xx_hal_flash_ex.c **** }
 501:Drivers/STM32H7xx_HAL_Driver/Src/stm32h7xx_hal_flash_ex.c **** 
 502:Drivers/STM32H7xx_HAL_Driver/Src/stm32h7xx_hal_flash_ex.c **** /**
 503:Drivers/STM32H7xx_HAL_Driver/Src/stm32h7xx_hal_flash_ex.c ****   * @brief Get the Option byte configuration
 504:Drivers/STM32H7xx_HAL_Driver/Src/stm32h7xx_hal_flash_ex.c ****   * @param  pOBInit pointer to an FLASH_OBInitStruct structure that
 505:Drivers/STM32H7xx_HAL_Driver/Src/stm32h7xx_hal_flash_ex.c ****   *         contains the configuration information for the programming.
 506:Drivers/STM32H7xx_HAL_Driver/Src/stm32h7xx_hal_flash_ex.c ****   * @note   The parameter Banks of the pOBInit structure must be set exclusively to FLASH_BANK_1 or
 507:Drivers/STM32H7xx_HAL_Driver/Src/stm32h7xx_hal_flash_ex.c ****   *         as this parameter is use to get the given Bank WRP, PCROP and secured area configuratio
 508:Drivers/STM32H7xx_HAL_Driver/Src/stm32h7xx_hal_flash_ex.c ****   *
 509:Drivers/STM32H7xx_HAL_Driver/Src/stm32h7xx_hal_flash_ex.c ****   * @retval None
 510:Drivers/STM32H7xx_HAL_Driver/Src/stm32h7xx_hal_flash_ex.c ****   */
 511:Drivers/STM32H7xx_HAL_Driver/Src/stm32h7xx_hal_flash_ex.c **** void HAL_FLASHEx_OBGetConfig(FLASH_OBProgramInitTypeDef *pOBInit)
 512:Drivers/STM32H7xx_HAL_Driver/Src/stm32h7xx_hal_flash_ex.c **** {
 513:Drivers/STM32H7xx_HAL_Driver/Src/stm32h7xx_hal_flash_ex.c ****   pOBInit->OptionType = (OPTIONBYTE_USER | OPTIONBYTE_RDP | OPTIONBYTE_BOR);
 514:Drivers/STM32H7xx_HAL_Driver/Src/stm32h7xx_hal_flash_ex.c **** 
 515:Drivers/STM32H7xx_HAL_Driver/Src/stm32h7xx_hal_flash_ex.c ****   /* Get Read protection level */
 516:Drivers/STM32H7xx_HAL_Driver/Src/stm32h7xx_hal_flash_ex.c ****   pOBInit->RDPLevel = FLASH_OB_GetRDP();
 517:Drivers/STM32H7xx_HAL_Driver/Src/stm32h7xx_hal_flash_ex.c **** 
 518:Drivers/STM32H7xx_HAL_Driver/Src/stm32h7xx_hal_flash_ex.c ****   /* Get the user option bytes */
 519:Drivers/STM32H7xx_HAL_Driver/Src/stm32h7xx_hal_flash_ex.c ****   pOBInit->USERConfig = FLASH_OB_GetUser();
 520:Drivers/STM32H7xx_HAL_Driver/Src/stm32h7xx_hal_flash_ex.c **** 
 521:Drivers/STM32H7xx_HAL_Driver/Src/stm32h7xx_hal_flash_ex.c ****   /*Get BOR Level*/
 522:Drivers/STM32H7xx_HAL_Driver/Src/stm32h7xx_hal_flash_ex.c ****   pOBInit->BORLevel = FLASH_OB_GetBOR();
 523:Drivers/STM32H7xx_HAL_Driver/Src/stm32h7xx_hal_flash_ex.c **** 
 524:Drivers/STM32H7xx_HAL_Driver/Src/stm32h7xx_hal_flash_ex.c ****   if ((pOBInit->Banks == FLASH_BANK_1) || (pOBInit->Banks == FLASH_BANK_2))
 525:Drivers/STM32H7xx_HAL_Driver/Src/stm32h7xx_hal_flash_ex.c ****   {
 526:Drivers/STM32H7xx_HAL_Driver/Src/stm32h7xx_hal_flash_ex.c ****     pOBInit->OptionType |= (OPTIONBYTE_WRP | OPTIONBYTE_PCROP | OPTIONBYTE_SECURE_AREA);
 527:Drivers/STM32H7xx_HAL_Driver/Src/stm32h7xx_hal_flash_ex.c **** 
 528:Drivers/STM32H7xx_HAL_Driver/Src/stm32h7xx_hal_flash_ex.c ****     /* Get write protection on the selected area */
 529:Drivers/STM32H7xx_HAL_Driver/Src/stm32h7xx_hal_flash_ex.c ****     FLASH_OB_GetWRP(&(pOBInit->WRPState), &(pOBInit->WRPSector), pOBInit->Banks);
 530:Drivers/STM32H7xx_HAL_Driver/Src/stm32h7xx_hal_flash_ex.c **** 
 531:Drivers/STM32H7xx_HAL_Driver/Src/stm32h7xx_hal_flash_ex.c ****     /* Get the Proprietary code readout protection */
 532:Drivers/STM32H7xx_HAL_Driver/Src/stm32h7xx_hal_flash_ex.c ****     FLASH_OB_GetPCROP(&(pOBInit->PCROPConfig), &(pOBInit->PCROPStartAddr), &(pOBInit->PCROPEndAddr)
 533:Drivers/STM32H7xx_HAL_Driver/Src/stm32h7xx_hal_flash_ex.c **** 
 534:Drivers/STM32H7xx_HAL_Driver/Src/stm32h7xx_hal_flash_ex.c ****     /*Get Bank Secure area*/
 535:Drivers/STM32H7xx_HAL_Driver/Src/stm32h7xx_hal_flash_ex.c ****     FLASH_OB_GetSecureArea(&(pOBInit->SecureAreaConfig), &(pOBInit->SecureAreaStartAddr), &(pOBInit
 536:Drivers/STM32H7xx_HAL_Driver/Src/stm32h7xx_hal_flash_ex.c ****   }
 537:Drivers/STM32H7xx_HAL_Driver/Src/stm32h7xx_hal_flash_ex.c **** 
 538:Drivers/STM32H7xx_HAL_Driver/Src/stm32h7xx_hal_flash_ex.c ****   /*Get Boot Address*/
 539:Drivers/STM32H7xx_HAL_Driver/Src/stm32h7xx_hal_flash_ex.c ****   FLASH_OB_GetBootAdd(&(pOBInit->BootAddr0), &(pOBInit->BootAddr1));
 540:Drivers/STM32H7xx_HAL_Driver/Src/stm32h7xx_hal_flash_ex.c **** #if defined(DUAL_CORE)
 541:Drivers/STM32H7xx_HAL_Driver/Src/stm32h7xx_hal_flash_ex.c ****   pOBInit->OptionType |= OPTIONBYTE_CM7_BOOTADD | OPTIONBYTE_CM4_BOOTADD;
 542:Drivers/STM32H7xx_HAL_Driver/Src/stm32h7xx_hal_flash_ex.c **** 
 543:Drivers/STM32H7xx_HAL_Driver/Src/stm32h7xx_hal_flash_ex.c ****   /*Get CM4 Boot Address*/
 544:Drivers/STM32H7xx_HAL_Driver/Src/stm32h7xx_hal_flash_ex.c ****   FLASH_OB_GetCM4BootAdd(&(pOBInit->CM4BootAddr0), &(pOBInit->CM4BootAddr1));
ARM GAS  C:\Users\chesn\AppData\Local\Temp\ccAfRyoq.s 			page 11


 545:Drivers/STM32H7xx_HAL_Driver/Src/stm32h7xx_hal_flash_ex.c **** #else
 546:Drivers/STM32H7xx_HAL_Driver/Src/stm32h7xx_hal_flash_ex.c ****   pOBInit->OptionType |= OPTIONBYTE_BOOTADD;
 547:Drivers/STM32H7xx_HAL_Driver/Src/stm32h7xx_hal_flash_ex.c **** #endif /*DUAL_CORE*/
 548:Drivers/STM32H7xx_HAL_Driver/Src/stm32h7xx_hal_flash_ex.c **** 
 549:Drivers/STM32H7xx_HAL_Driver/Src/stm32h7xx_hal_flash_ex.c **** #if defined (FLASH_OTPBL_LOCKBL)
 550:Drivers/STM32H7xx_HAL_Driver/Src/stm32h7xx_hal_flash_ex.c ****   pOBInit->OptionType |= OPTIONBYTE_OTP_LOCK;
 551:Drivers/STM32H7xx_HAL_Driver/Src/stm32h7xx_hal_flash_ex.c **** 
 552:Drivers/STM32H7xx_HAL_Driver/Src/stm32h7xx_hal_flash_ex.c ****   /* Get OTP Block Lock */
 553:Drivers/STM32H7xx_HAL_Driver/Src/stm32h7xx_hal_flash_ex.c ****   pOBInit->OTPBlockLock = FLASH_OB_OTP_GetLock();
 554:Drivers/STM32H7xx_HAL_Driver/Src/stm32h7xx_hal_flash_ex.c **** #endif /* FLASH_OTPBL_LOCKBL */
 555:Drivers/STM32H7xx_HAL_Driver/Src/stm32h7xx_hal_flash_ex.c **** }
 556:Drivers/STM32H7xx_HAL_Driver/Src/stm32h7xx_hal_flash_ex.c **** 
 557:Drivers/STM32H7xx_HAL_Driver/Src/stm32h7xx_hal_flash_ex.c **** /**
 558:Drivers/STM32H7xx_HAL_Driver/Src/stm32h7xx_hal_flash_ex.c ****   * @brief  Unlock the FLASH Bank1 control registers access
 559:Drivers/STM32H7xx_HAL_Driver/Src/stm32h7xx_hal_flash_ex.c ****   * @retval HAL Status
 560:Drivers/STM32H7xx_HAL_Driver/Src/stm32h7xx_hal_flash_ex.c ****   */
 561:Drivers/STM32H7xx_HAL_Driver/Src/stm32h7xx_hal_flash_ex.c **** HAL_StatusTypeDef HAL_FLASHEx_Unlock_Bank1(void)
 562:Drivers/STM32H7xx_HAL_Driver/Src/stm32h7xx_hal_flash_ex.c **** {
 563:Drivers/STM32H7xx_HAL_Driver/Src/stm32h7xx_hal_flash_ex.c ****   if(READ_BIT(FLASH->CR1, FLASH_CR_LOCK) != 0U)
 564:Drivers/STM32H7xx_HAL_Driver/Src/stm32h7xx_hal_flash_ex.c ****   {
 565:Drivers/STM32H7xx_HAL_Driver/Src/stm32h7xx_hal_flash_ex.c ****     /* Authorize the FLASH Bank1 Registers access */
 566:Drivers/STM32H7xx_HAL_Driver/Src/stm32h7xx_hal_flash_ex.c ****     WRITE_REG(FLASH->KEYR1, FLASH_KEY1);
 567:Drivers/STM32H7xx_HAL_Driver/Src/stm32h7xx_hal_flash_ex.c ****     WRITE_REG(FLASH->KEYR1, FLASH_KEY2);
 568:Drivers/STM32H7xx_HAL_Driver/Src/stm32h7xx_hal_flash_ex.c **** 
 569:Drivers/STM32H7xx_HAL_Driver/Src/stm32h7xx_hal_flash_ex.c ****     /* Verify Flash Bank1 is unlocked */
 570:Drivers/STM32H7xx_HAL_Driver/Src/stm32h7xx_hal_flash_ex.c ****     if (READ_BIT(FLASH->CR1, FLASH_CR_LOCK) != 0U)
 571:Drivers/STM32H7xx_HAL_Driver/Src/stm32h7xx_hal_flash_ex.c ****     {
 572:Drivers/STM32H7xx_HAL_Driver/Src/stm32h7xx_hal_flash_ex.c ****       return HAL_ERROR;
 573:Drivers/STM32H7xx_HAL_Driver/Src/stm32h7xx_hal_flash_ex.c ****     }
 574:Drivers/STM32H7xx_HAL_Driver/Src/stm32h7xx_hal_flash_ex.c ****   }
 575:Drivers/STM32H7xx_HAL_Driver/Src/stm32h7xx_hal_flash_ex.c **** 
 576:Drivers/STM32H7xx_HAL_Driver/Src/stm32h7xx_hal_flash_ex.c ****   return HAL_OK;
 577:Drivers/STM32H7xx_HAL_Driver/Src/stm32h7xx_hal_flash_ex.c **** }
 578:Drivers/STM32H7xx_HAL_Driver/Src/stm32h7xx_hal_flash_ex.c **** 
 579:Drivers/STM32H7xx_HAL_Driver/Src/stm32h7xx_hal_flash_ex.c **** /**
 580:Drivers/STM32H7xx_HAL_Driver/Src/stm32h7xx_hal_flash_ex.c ****   * @brief  Locks the FLASH Bank1 control registers access
 581:Drivers/STM32H7xx_HAL_Driver/Src/stm32h7xx_hal_flash_ex.c ****   * @retval HAL Status
 582:Drivers/STM32H7xx_HAL_Driver/Src/stm32h7xx_hal_flash_ex.c ****   */
 583:Drivers/STM32H7xx_HAL_Driver/Src/stm32h7xx_hal_flash_ex.c **** HAL_StatusTypeDef HAL_FLASHEx_Lock_Bank1(void)
 584:Drivers/STM32H7xx_HAL_Driver/Src/stm32h7xx_hal_flash_ex.c **** {
 585:Drivers/STM32H7xx_HAL_Driver/Src/stm32h7xx_hal_flash_ex.c ****   /* Set the LOCK Bit to lock the FLASH Bank1 Registers access */
 586:Drivers/STM32H7xx_HAL_Driver/Src/stm32h7xx_hal_flash_ex.c ****   SET_BIT(FLASH->CR1, FLASH_CR_LOCK);
 587:Drivers/STM32H7xx_HAL_Driver/Src/stm32h7xx_hal_flash_ex.c ****   return HAL_OK;
 588:Drivers/STM32H7xx_HAL_Driver/Src/stm32h7xx_hal_flash_ex.c **** }
 589:Drivers/STM32H7xx_HAL_Driver/Src/stm32h7xx_hal_flash_ex.c **** 
 590:Drivers/STM32H7xx_HAL_Driver/Src/stm32h7xx_hal_flash_ex.c **** /**
 591:Drivers/STM32H7xx_HAL_Driver/Src/stm32h7xx_hal_flash_ex.c ****   * @brief  Unlock the FLASH Bank2 control registers access
 592:Drivers/STM32H7xx_HAL_Driver/Src/stm32h7xx_hal_flash_ex.c ****   * @retval HAL Status
 593:Drivers/STM32H7xx_HAL_Driver/Src/stm32h7xx_hal_flash_ex.c ****   */
 594:Drivers/STM32H7xx_HAL_Driver/Src/stm32h7xx_hal_flash_ex.c **** HAL_StatusTypeDef HAL_FLASHEx_Unlock_Bank2(void)
 595:Drivers/STM32H7xx_HAL_Driver/Src/stm32h7xx_hal_flash_ex.c **** {
 596:Drivers/STM32H7xx_HAL_Driver/Src/stm32h7xx_hal_flash_ex.c ****   if(READ_BIT(FLASH->CR2, FLASH_CR_LOCK) != 0U)
 597:Drivers/STM32H7xx_HAL_Driver/Src/stm32h7xx_hal_flash_ex.c ****   {
 598:Drivers/STM32H7xx_HAL_Driver/Src/stm32h7xx_hal_flash_ex.c ****     /* Authorize the FLASH Bank2 Registers access */
 599:Drivers/STM32H7xx_HAL_Driver/Src/stm32h7xx_hal_flash_ex.c ****     WRITE_REG(FLASH->KEYR2, FLASH_KEY1);
 600:Drivers/STM32H7xx_HAL_Driver/Src/stm32h7xx_hal_flash_ex.c ****     WRITE_REG(FLASH->KEYR2, FLASH_KEY2);
 601:Drivers/STM32H7xx_HAL_Driver/Src/stm32h7xx_hal_flash_ex.c **** 
ARM GAS  C:\Users\chesn\AppData\Local\Temp\ccAfRyoq.s 			page 12


 602:Drivers/STM32H7xx_HAL_Driver/Src/stm32h7xx_hal_flash_ex.c ****     /* Verify Flash Bank1 is unlocked */
 603:Drivers/STM32H7xx_HAL_Driver/Src/stm32h7xx_hal_flash_ex.c ****     if (READ_BIT(FLASH->CR2, FLASH_CR_LOCK) != 0U)
 604:Drivers/STM32H7xx_HAL_Driver/Src/stm32h7xx_hal_flash_ex.c ****     {
 605:Drivers/STM32H7xx_HAL_Driver/Src/stm32h7xx_hal_flash_ex.c ****       return HAL_ERROR;
 606:Drivers/STM32H7xx_HAL_Driver/Src/stm32h7xx_hal_flash_ex.c ****     }
 607:Drivers/STM32H7xx_HAL_Driver/Src/stm32h7xx_hal_flash_ex.c ****   }
 608:Drivers/STM32H7xx_HAL_Driver/Src/stm32h7xx_hal_flash_ex.c **** 
 609:Drivers/STM32H7xx_HAL_Driver/Src/stm32h7xx_hal_flash_ex.c ****   return HAL_OK;
 610:Drivers/STM32H7xx_HAL_Driver/Src/stm32h7xx_hal_flash_ex.c **** }
 611:Drivers/STM32H7xx_HAL_Driver/Src/stm32h7xx_hal_flash_ex.c **** 
 612:Drivers/STM32H7xx_HAL_Driver/Src/stm32h7xx_hal_flash_ex.c **** /**
 613:Drivers/STM32H7xx_HAL_Driver/Src/stm32h7xx_hal_flash_ex.c ****   * @brief  Locks the FLASH Bank2 control registers access
 614:Drivers/STM32H7xx_HAL_Driver/Src/stm32h7xx_hal_flash_ex.c ****   * @retval HAL Status
 615:Drivers/STM32H7xx_HAL_Driver/Src/stm32h7xx_hal_flash_ex.c ****   */
 616:Drivers/STM32H7xx_HAL_Driver/Src/stm32h7xx_hal_flash_ex.c **** HAL_StatusTypeDef HAL_FLASHEx_Lock_Bank2(void)
 617:Drivers/STM32H7xx_HAL_Driver/Src/stm32h7xx_hal_flash_ex.c **** {
 618:Drivers/STM32H7xx_HAL_Driver/Src/stm32h7xx_hal_flash_ex.c ****   /* Set the LOCK Bit to lock the FLASH Bank2 Registers access */
 619:Drivers/STM32H7xx_HAL_Driver/Src/stm32h7xx_hal_flash_ex.c ****   SET_BIT(FLASH->CR2, FLASH_CR_LOCK);
 620:Drivers/STM32H7xx_HAL_Driver/Src/stm32h7xx_hal_flash_ex.c ****   return HAL_OK;
 621:Drivers/STM32H7xx_HAL_Driver/Src/stm32h7xx_hal_flash_ex.c **** }
 622:Drivers/STM32H7xx_HAL_Driver/Src/stm32h7xx_hal_flash_ex.c **** 
 623:Drivers/STM32H7xx_HAL_Driver/Src/stm32h7xx_hal_flash_ex.c **** /*
 624:Drivers/STM32H7xx_HAL_Driver/Src/stm32h7xx_hal_flash_ex.c ****   * @brief  Perform a CRC computation on the specified FLASH memory area
 625:Drivers/STM32H7xx_HAL_Driver/Src/stm32h7xx_hal_flash_ex.c ****   * @param  pCRCInit pointer to an FLASH_CRCInitTypeDef structure that
 626:Drivers/STM32H7xx_HAL_Driver/Src/stm32h7xx_hal_flash_ex.c ****   *         contains the configuration information for the CRC computation.
 627:Drivers/STM32H7xx_HAL_Driver/Src/stm32h7xx_hal_flash_ex.c ****   * @note   CRC computation uses CRC-32 (Ethernet) polynomial 0x4C11DB7
 628:Drivers/STM32H7xx_HAL_Driver/Src/stm32h7xx_hal_flash_ex.c ****   * @note   The application should avoid running a CRC on PCROP or secure-only
 629:Drivers/STM32H7xx_HAL_Driver/Src/stm32h7xx_hal_flash_ex.c ****   *         user Flash memory area since it may alter the expected CRC value.
 630:Drivers/STM32H7xx_HAL_Driver/Src/stm32h7xx_hal_flash_ex.c ****   *         A special error flag (CRC read error: CRCRDERR) can be used to
 631:Drivers/STM32H7xx_HAL_Driver/Src/stm32h7xx_hal_flash_ex.c ****   *         detect such a case.
 632:Drivers/STM32H7xx_HAL_Driver/Src/stm32h7xx_hal_flash_ex.c ****   * @retval HAL Status
 633:Drivers/STM32H7xx_HAL_Driver/Src/stm32h7xx_hal_flash_ex.c **** */
 634:Drivers/STM32H7xx_HAL_Driver/Src/stm32h7xx_hal_flash_ex.c **** HAL_StatusTypeDef HAL_FLASHEx_ComputeCRC(FLASH_CRCInitTypeDef *pCRCInit, uint32_t *CRC_Result)
 635:Drivers/STM32H7xx_HAL_Driver/Src/stm32h7xx_hal_flash_ex.c **** {
 636:Drivers/STM32H7xx_HAL_Driver/Src/stm32h7xx_hal_flash_ex.c ****   HAL_StatusTypeDef status;
 637:Drivers/STM32H7xx_HAL_Driver/Src/stm32h7xx_hal_flash_ex.c ****   uint32_t sector_index;
 638:Drivers/STM32H7xx_HAL_Driver/Src/stm32h7xx_hal_flash_ex.c **** 
 639:Drivers/STM32H7xx_HAL_Driver/Src/stm32h7xx_hal_flash_ex.c ****   /* Check the parameters */
 640:Drivers/STM32H7xx_HAL_Driver/Src/stm32h7xx_hal_flash_ex.c ****   assert_param(IS_FLASH_BANK_EXCLUSIVE(pCRCInit->Bank));
 641:Drivers/STM32H7xx_HAL_Driver/Src/stm32h7xx_hal_flash_ex.c ****   assert_param(IS_FLASH_TYPECRC(pCRCInit->TypeCRC));
 642:Drivers/STM32H7xx_HAL_Driver/Src/stm32h7xx_hal_flash_ex.c **** 
 643:Drivers/STM32H7xx_HAL_Driver/Src/stm32h7xx_hal_flash_ex.c ****   /* Wait for OB change operation to be completed */
 644:Drivers/STM32H7xx_HAL_Driver/Src/stm32h7xx_hal_flash_ex.c ****   status = FLASH_OB_WaitForLastOperation((uint32_t)FLASH_TIMEOUT_VALUE);
 645:Drivers/STM32H7xx_HAL_Driver/Src/stm32h7xx_hal_flash_ex.c **** 
 646:Drivers/STM32H7xx_HAL_Driver/Src/stm32h7xx_hal_flash_ex.c ****   if (status == HAL_OK)
 647:Drivers/STM32H7xx_HAL_Driver/Src/stm32h7xx_hal_flash_ex.c ****   {
 648:Drivers/STM32H7xx_HAL_Driver/Src/stm32h7xx_hal_flash_ex.c ****     if (pCRCInit->Bank == FLASH_BANK_1)
 649:Drivers/STM32H7xx_HAL_Driver/Src/stm32h7xx_hal_flash_ex.c ****     {
 650:Drivers/STM32H7xx_HAL_Driver/Src/stm32h7xx_hal_flash_ex.c ****       /* Enable CRC feature */
 651:Drivers/STM32H7xx_HAL_Driver/Src/stm32h7xx_hal_flash_ex.c ****       FLASH->CR1 |= FLASH_CR_CRC_EN;
 652:Drivers/STM32H7xx_HAL_Driver/Src/stm32h7xx_hal_flash_ex.c **** 
 653:Drivers/STM32H7xx_HAL_Driver/Src/stm32h7xx_hal_flash_ex.c ****       /* Clear CRC flags in Status Register: CRC end of calculation and CRC read error */
 654:Drivers/STM32H7xx_HAL_Driver/Src/stm32h7xx_hal_flash_ex.c ****       FLASH->CCR1 |= (FLASH_CCR_CLR_CRCEND | FLASH_CCR_CLR_CRCRDERR);
 655:Drivers/STM32H7xx_HAL_Driver/Src/stm32h7xx_hal_flash_ex.c **** 
 656:Drivers/STM32H7xx_HAL_Driver/Src/stm32h7xx_hal_flash_ex.c ****       /* Clear current CRC result, program burst size and define memory area on which CRC has to be
 657:Drivers/STM32H7xx_HAL_Driver/Src/stm32h7xx_hal_flash_ex.c ****       FLASH->CRCCR1 |= FLASH_CRCCR_CLEAN_CRC | pCRCInit->BurstSize | pCRCInit->TypeCRC;
 658:Drivers/STM32H7xx_HAL_Driver/Src/stm32h7xx_hal_flash_ex.c **** 
ARM GAS  C:\Users\chesn\AppData\Local\Temp\ccAfRyoq.s 			page 13


 659:Drivers/STM32H7xx_HAL_Driver/Src/stm32h7xx_hal_flash_ex.c ****       if (pCRCInit->TypeCRC == FLASH_CRC_SECTORS)
 660:Drivers/STM32H7xx_HAL_Driver/Src/stm32h7xx_hal_flash_ex.c ****       {
 661:Drivers/STM32H7xx_HAL_Driver/Src/stm32h7xx_hal_flash_ex.c ****         /* Clear sectors list */
 662:Drivers/STM32H7xx_HAL_Driver/Src/stm32h7xx_hal_flash_ex.c ****         FLASH->CRCCR1 |= FLASH_CRCCR_CLEAN_SECT;
 663:Drivers/STM32H7xx_HAL_Driver/Src/stm32h7xx_hal_flash_ex.c **** 
 664:Drivers/STM32H7xx_HAL_Driver/Src/stm32h7xx_hal_flash_ex.c ****         /* Select CRC sectors */
 665:Drivers/STM32H7xx_HAL_Driver/Src/stm32h7xx_hal_flash_ex.c ****         for(sector_index = pCRCInit->Sector; sector_index < (pCRCInit->NbSectors + pCRCInit->Sector
 666:Drivers/STM32H7xx_HAL_Driver/Src/stm32h7xx_hal_flash_ex.c ****         {
 667:Drivers/STM32H7xx_HAL_Driver/Src/stm32h7xx_hal_flash_ex.c ****           FLASH_CRC_AddSector(sector_index, FLASH_BANK_1);
 668:Drivers/STM32H7xx_HAL_Driver/Src/stm32h7xx_hal_flash_ex.c ****         }
 669:Drivers/STM32H7xx_HAL_Driver/Src/stm32h7xx_hal_flash_ex.c ****       }
 670:Drivers/STM32H7xx_HAL_Driver/Src/stm32h7xx_hal_flash_ex.c ****       else if (pCRCInit->TypeCRC == FLASH_CRC_BANK)
 671:Drivers/STM32H7xx_HAL_Driver/Src/stm32h7xx_hal_flash_ex.c ****       {
 672:Drivers/STM32H7xx_HAL_Driver/Src/stm32h7xx_hal_flash_ex.c ****         /* Enable Bank 1 CRC select bit */
 673:Drivers/STM32H7xx_HAL_Driver/Src/stm32h7xx_hal_flash_ex.c ****         FLASH->CRCCR1 |= FLASH_CRCCR_ALL_BANK;
 674:Drivers/STM32H7xx_HAL_Driver/Src/stm32h7xx_hal_flash_ex.c ****       }
 675:Drivers/STM32H7xx_HAL_Driver/Src/stm32h7xx_hal_flash_ex.c ****       else
 676:Drivers/STM32H7xx_HAL_Driver/Src/stm32h7xx_hal_flash_ex.c ****       {
 677:Drivers/STM32H7xx_HAL_Driver/Src/stm32h7xx_hal_flash_ex.c ****         /* Select CRC start and end addresses */
 678:Drivers/STM32H7xx_HAL_Driver/Src/stm32h7xx_hal_flash_ex.c ****         FLASH_CRC_SelectAddress(pCRCInit->CRCStartAddr, pCRCInit->CRCEndAddr, FLASH_BANK_1);
 679:Drivers/STM32H7xx_HAL_Driver/Src/stm32h7xx_hal_flash_ex.c ****       }
 680:Drivers/STM32H7xx_HAL_Driver/Src/stm32h7xx_hal_flash_ex.c **** 
 681:Drivers/STM32H7xx_HAL_Driver/Src/stm32h7xx_hal_flash_ex.c ****       /* Start the CRC calculation */
 682:Drivers/STM32H7xx_HAL_Driver/Src/stm32h7xx_hal_flash_ex.c ****       FLASH->CRCCR1 |= FLASH_CRCCR_START_CRC;
 683:Drivers/STM32H7xx_HAL_Driver/Src/stm32h7xx_hal_flash_ex.c **** 
 684:Drivers/STM32H7xx_HAL_Driver/Src/stm32h7xx_hal_flash_ex.c ****       /* Wait on CRC busy flag */
 685:Drivers/STM32H7xx_HAL_Driver/Src/stm32h7xx_hal_flash_ex.c ****       status = FLASH_CRC_WaitForLastOperation((uint32_t)FLASH_TIMEOUT_VALUE, FLASH_BANK_1);
 686:Drivers/STM32H7xx_HAL_Driver/Src/stm32h7xx_hal_flash_ex.c **** 
 687:Drivers/STM32H7xx_HAL_Driver/Src/stm32h7xx_hal_flash_ex.c ****       /* Return CRC result */
 688:Drivers/STM32H7xx_HAL_Driver/Src/stm32h7xx_hal_flash_ex.c ****       (*CRC_Result) = FLASH->CRCDATA;
 689:Drivers/STM32H7xx_HAL_Driver/Src/stm32h7xx_hal_flash_ex.c **** 
 690:Drivers/STM32H7xx_HAL_Driver/Src/stm32h7xx_hal_flash_ex.c ****       /* Disable CRC feature */
 691:Drivers/STM32H7xx_HAL_Driver/Src/stm32h7xx_hal_flash_ex.c ****       FLASH->CR1 &= (~FLASH_CR_CRC_EN);
 692:Drivers/STM32H7xx_HAL_Driver/Src/stm32h7xx_hal_flash_ex.c **** 
 693:Drivers/STM32H7xx_HAL_Driver/Src/stm32h7xx_hal_flash_ex.c ****       /* Clear CRC flags */
 694:Drivers/STM32H7xx_HAL_Driver/Src/stm32h7xx_hal_flash_ex.c ****       __HAL_FLASH_CLEAR_FLAG_BANK1(FLASH_FLAG_CRCEND_BANK1 | FLASH_FLAG_CRCRDERR_BANK1);
 695:Drivers/STM32H7xx_HAL_Driver/Src/stm32h7xx_hal_flash_ex.c ****     }
 696:Drivers/STM32H7xx_HAL_Driver/Src/stm32h7xx_hal_flash_ex.c ****     else
 697:Drivers/STM32H7xx_HAL_Driver/Src/stm32h7xx_hal_flash_ex.c ****     {
 698:Drivers/STM32H7xx_HAL_Driver/Src/stm32h7xx_hal_flash_ex.c ****       /* Enable CRC feature */
 699:Drivers/STM32H7xx_HAL_Driver/Src/stm32h7xx_hal_flash_ex.c ****       FLASH->CR2 |= FLASH_CR_CRC_EN;
 700:Drivers/STM32H7xx_HAL_Driver/Src/stm32h7xx_hal_flash_ex.c **** 
 701:Drivers/STM32H7xx_HAL_Driver/Src/stm32h7xx_hal_flash_ex.c ****       /* Clear CRC flags in Status Register: CRC end of calculation and CRC read error */
 702:Drivers/STM32H7xx_HAL_Driver/Src/stm32h7xx_hal_flash_ex.c ****       FLASH->CCR2 |= (FLASH_CCR_CLR_CRCEND | FLASH_CCR_CLR_CRCRDERR);
 703:Drivers/STM32H7xx_HAL_Driver/Src/stm32h7xx_hal_flash_ex.c **** 
 704:Drivers/STM32H7xx_HAL_Driver/Src/stm32h7xx_hal_flash_ex.c ****       /* Clear current CRC result, program burst size and define memory area on which CRC has to be
 705:Drivers/STM32H7xx_HAL_Driver/Src/stm32h7xx_hal_flash_ex.c ****       FLASH->CRCCR2 |= FLASH_CRCCR_CLEAN_CRC | pCRCInit->BurstSize | pCRCInit->TypeCRC;
 706:Drivers/STM32H7xx_HAL_Driver/Src/stm32h7xx_hal_flash_ex.c **** 
 707:Drivers/STM32H7xx_HAL_Driver/Src/stm32h7xx_hal_flash_ex.c ****       if (pCRCInit->TypeCRC == FLASH_CRC_SECTORS)
 708:Drivers/STM32H7xx_HAL_Driver/Src/stm32h7xx_hal_flash_ex.c ****       {
 709:Drivers/STM32H7xx_HAL_Driver/Src/stm32h7xx_hal_flash_ex.c ****         /* Clear sectors list */
 710:Drivers/STM32H7xx_HAL_Driver/Src/stm32h7xx_hal_flash_ex.c ****         FLASH->CRCCR2 |= FLASH_CRCCR_CLEAN_SECT;
 711:Drivers/STM32H7xx_HAL_Driver/Src/stm32h7xx_hal_flash_ex.c **** 
 712:Drivers/STM32H7xx_HAL_Driver/Src/stm32h7xx_hal_flash_ex.c ****         /* Add CRC sectors */
 713:Drivers/STM32H7xx_HAL_Driver/Src/stm32h7xx_hal_flash_ex.c ****         for(sector_index = pCRCInit->Sector; sector_index < (pCRCInit->NbSectors + pCRCInit->Sector
 714:Drivers/STM32H7xx_HAL_Driver/Src/stm32h7xx_hal_flash_ex.c ****         {
 715:Drivers/STM32H7xx_HAL_Driver/Src/stm32h7xx_hal_flash_ex.c ****           FLASH_CRC_AddSector(sector_index, FLASH_BANK_2);
ARM GAS  C:\Users\chesn\AppData\Local\Temp\ccAfRyoq.s 			page 14


 716:Drivers/STM32H7xx_HAL_Driver/Src/stm32h7xx_hal_flash_ex.c ****         }
 717:Drivers/STM32H7xx_HAL_Driver/Src/stm32h7xx_hal_flash_ex.c ****       }
 718:Drivers/STM32H7xx_HAL_Driver/Src/stm32h7xx_hal_flash_ex.c ****       else if (pCRCInit->TypeCRC == FLASH_CRC_BANK)
 719:Drivers/STM32H7xx_HAL_Driver/Src/stm32h7xx_hal_flash_ex.c ****       {
 720:Drivers/STM32H7xx_HAL_Driver/Src/stm32h7xx_hal_flash_ex.c ****         /* Enable Bank 2 CRC select bit */
 721:Drivers/STM32H7xx_HAL_Driver/Src/stm32h7xx_hal_flash_ex.c ****         FLASH->CRCCR2 |= FLASH_CRCCR_ALL_BANK;
 722:Drivers/STM32H7xx_HAL_Driver/Src/stm32h7xx_hal_flash_ex.c ****       }
 723:Drivers/STM32H7xx_HAL_Driver/Src/stm32h7xx_hal_flash_ex.c ****       else
 724:Drivers/STM32H7xx_HAL_Driver/Src/stm32h7xx_hal_flash_ex.c ****       {
 725:Drivers/STM32H7xx_HAL_Driver/Src/stm32h7xx_hal_flash_ex.c ****         /* Select CRC start and end addresses */
 726:Drivers/STM32H7xx_HAL_Driver/Src/stm32h7xx_hal_flash_ex.c ****         FLASH_CRC_SelectAddress(pCRCInit->CRCStartAddr, pCRCInit->CRCEndAddr, FLASH_BANK_2);
 727:Drivers/STM32H7xx_HAL_Driver/Src/stm32h7xx_hal_flash_ex.c ****       }
 728:Drivers/STM32H7xx_HAL_Driver/Src/stm32h7xx_hal_flash_ex.c **** 
 729:Drivers/STM32H7xx_HAL_Driver/Src/stm32h7xx_hal_flash_ex.c ****       /* Start the CRC calculation */
 730:Drivers/STM32H7xx_HAL_Driver/Src/stm32h7xx_hal_flash_ex.c ****       FLASH->CRCCR2 |= FLASH_CRCCR_START_CRC;
 731:Drivers/STM32H7xx_HAL_Driver/Src/stm32h7xx_hal_flash_ex.c **** 
 732:Drivers/STM32H7xx_HAL_Driver/Src/stm32h7xx_hal_flash_ex.c ****       /* Wait on CRC busy flag */
 733:Drivers/STM32H7xx_HAL_Driver/Src/stm32h7xx_hal_flash_ex.c ****       status = FLASH_CRC_WaitForLastOperation((uint32_t)FLASH_TIMEOUT_VALUE, FLASH_BANK_2);
 734:Drivers/STM32H7xx_HAL_Driver/Src/stm32h7xx_hal_flash_ex.c **** 
 735:Drivers/STM32H7xx_HAL_Driver/Src/stm32h7xx_hal_flash_ex.c ****       /* Return CRC result */
 736:Drivers/STM32H7xx_HAL_Driver/Src/stm32h7xx_hal_flash_ex.c ****       (*CRC_Result) = FLASH->CRCDATA;
 737:Drivers/STM32H7xx_HAL_Driver/Src/stm32h7xx_hal_flash_ex.c **** 
 738:Drivers/STM32H7xx_HAL_Driver/Src/stm32h7xx_hal_flash_ex.c ****       /* Disable CRC feature */
 739:Drivers/STM32H7xx_HAL_Driver/Src/stm32h7xx_hal_flash_ex.c ****       FLASH->CR2 &= (~FLASH_CR_CRC_EN);
 740:Drivers/STM32H7xx_HAL_Driver/Src/stm32h7xx_hal_flash_ex.c **** 
 741:Drivers/STM32H7xx_HAL_Driver/Src/stm32h7xx_hal_flash_ex.c ****       /* Clear CRC flags */
 742:Drivers/STM32H7xx_HAL_Driver/Src/stm32h7xx_hal_flash_ex.c ****       __HAL_FLASH_CLEAR_FLAG_BANK2(FLASH_FLAG_CRCEND_BANK2 | FLASH_FLAG_CRCRDERR_BANK2);
 743:Drivers/STM32H7xx_HAL_Driver/Src/stm32h7xx_hal_flash_ex.c ****     }
 744:Drivers/STM32H7xx_HAL_Driver/Src/stm32h7xx_hal_flash_ex.c ****   }
 745:Drivers/STM32H7xx_HAL_Driver/Src/stm32h7xx_hal_flash_ex.c **** 
 746:Drivers/STM32H7xx_HAL_Driver/Src/stm32h7xx_hal_flash_ex.c ****   return status;
 747:Drivers/STM32H7xx_HAL_Driver/Src/stm32h7xx_hal_flash_ex.c **** }
 748:Drivers/STM32H7xx_HAL_Driver/Src/stm32h7xx_hal_flash_ex.c **** 
 749:Drivers/STM32H7xx_HAL_Driver/Src/stm32h7xx_hal_flash_ex.c **** /**
 750:Drivers/STM32H7xx_HAL_Driver/Src/stm32h7xx_hal_flash_ex.c ****   * @}
 751:Drivers/STM32H7xx_HAL_Driver/Src/stm32h7xx_hal_flash_ex.c ****   */
 752:Drivers/STM32H7xx_HAL_Driver/Src/stm32h7xx_hal_flash_ex.c **** 
 753:Drivers/STM32H7xx_HAL_Driver/Src/stm32h7xx_hal_flash_ex.c **** /**
 754:Drivers/STM32H7xx_HAL_Driver/Src/stm32h7xx_hal_flash_ex.c ****   * @}
 755:Drivers/STM32H7xx_HAL_Driver/Src/stm32h7xx_hal_flash_ex.c ****   */
 756:Drivers/STM32H7xx_HAL_Driver/Src/stm32h7xx_hal_flash_ex.c **** 
 757:Drivers/STM32H7xx_HAL_Driver/Src/stm32h7xx_hal_flash_ex.c **** /* Private functions ---------------------------------------------------------*/
 758:Drivers/STM32H7xx_HAL_Driver/Src/stm32h7xx_hal_flash_ex.c **** 
 759:Drivers/STM32H7xx_HAL_Driver/Src/stm32h7xx_hal_flash_ex.c **** /** @addtogroup FLASHEx_Private_Functions
 760:Drivers/STM32H7xx_HAL_Driver/Src/stm32h7xx_hal_flash_ex.c ****   * @{
 761:Drivers/STM32H7xx_HAL_Driver/Src/stm32h7xx_hal_flash_ex.c ****   */
 762:Drivers/STM32H7xx_HAL_Driver/Src/stm32h7xx_hal_flash_ex.c **** 
 763:Drivers/STM32H7xx_HAL_Driver/Src/stm32h7xx_hal_flash_ex.c **** /**
 764:Drivers/STM32H7xx_HAL_Driver/Src/stm32h7xx_hal_flash_ex.c ****   * @brief  Mass erase of FLASH memory
 765:Drivers/STM32H7xx_HAL_Driver/Src/stm32h7xx_hal_flash_ex.c ****   * @param  VoltageRange The device program/erase parallelism.
 766:Drivers/STM32H7xx_HAL_Driver/Src/stm32h7xx_hal_flash_ex.c ****   *          This parameter can be one of the following values:
 767:Drivers/STM32H7xx_HAL_Driver/Src/stm32h7xx_hal_flash_ex.c ****   *            @arg FLASH_VOLTAGE_RANGE_1 : Flash program/erase by 8 bits
 768:Drivers/STM32H7xx_HAL_Driver/Src/stm32h7xx_hal_flash_ex.c ****   *            @arg FLASH_VOLTAGE_RANGE_2 : Flash program/erase by 16 bits
 769:Drivers/STM32H7xx_HAL_Driver/Src/stm32h7xx_hal_flash_ex.c ****   *            @arg FLASH_VOLTAGE_RANGE_3 : Flash program/erase by 32 bits
 770:Drivers/STM32H7xx_HAL_Driver/Src/stm32h7xx_hal_flash_ex.c ****   *            @arg FLASH_VOLTAGE_RANGE_4 : Flash program/erase by 64 bits
 771:Drivers/STM32H7xx_HAL_Driver/Src/stm32h7xx_hal_flash_ex.c ****   *
 772:Drivers/STM32H7xx_HAL_Driver/Src/stm32h7xx_hal_flash_ex.c ****   * @param  Banks Banks to be erased
ARM GAS  C:\Users\chesn\AppData\Local\Temp\ccAfRyoq.s 			page 15


 773:Drivers/STM32H7xx_HAL_Driver/Src/stm32h7xx_hal_flash_ex.c ****   *          This parameter can be one of the following values:
 774:Drivers/STM32H7xx_HAL_Driver/Src/stm32h7xx_hal_flash_ex.c ****   *            @arg FLASH_BANK_1: Bank1 to be erased
 775:Drivers/STM32H7xx_HAL_Driver/Src/stm32h7xx_hal_flash_ex.c ****   *            @arg FLASH_BANK_2: Bank2 to be erased
 776:Drivers/STM32H7xx_HAL_Driver/Src/stm32h7xx_hal_flash_ex.c ****   *            @arg FLASH_BANK_BOTH: Bank1 and Bank2 to be erased
 777:Drivers/STM32H7xx_HAL_Driver/Src/stm32h7xx_hal_flash_ex.c ****   *
 778:Drivers/STM32H7xx_HAL_Driver/Src/stm32h7xx_hal_flash_ex.c ****   * @retval HAL Status
 779:Drivers/STM32H7xx_HAL_Driver/Src/stm32h7xx_hal_flash_ex.c ****   */
 780:Drivers/STM32H7xx_HAL_Driver/Src/stm32h7xx_hal_flash_ex.c **** static void FLASH_MassErase(uint32_t VoltageRange, uint32_t Banks)
 781:Drivers/STM32H7xx_HAL_Driver/Src/stm32h7xx_hal_flash_ex.c **** {
  28              		.loc 1 781 1 view -0
  29              		.cfi_startproc
  30              		@ args = 0, pretend = 0, frame = 0
  31              		@ frame_needed = 0, uses_anonymous_args = 0
  32              		@ link register save eliminated.
 782:Drivers/STM32H7xx_HAL_Driver/Src/stm32h7xx_hal_flash_ex.c ****   /* Check the parameters */
 783:Drivers/STM32H7xx_HAL_Driver/Src/stm32h7xx_hal_flash_ex.c **** #if defined (FLASH_CR_PSIZE)
 784:Drivers/STM32H7xx_HAL_Driver/Src/stm32h7xx_hal_flash_ex.c ****   assert_param(IS_VOLTAGERANGE(VoltageRange));
  33              		.loc 1 784 3 view .LVU1
 785:Drivers/STM32H7xx_HAL_Driver/Src/stm32h7xx_hal_flash_ex.c **** #else
 786:Drivers/STM32H7xx_HAL_Driver/Src/stm32h7xx_hal_flash_ex.c ****   UNUSED(VoltageRange);
 787:Drivers/STM32H7xx_HAL_Driver/Src/stm32h7xx_hal_flash_ex.c **** #endif /* FLASH_CR_PSIZE */
 788:Drivers/STM32H7xx_HAL_Driver/Src/stm32h7xx_hal_flash_ex.c ****   assert_param(IS_FLASH_BANK(Banks));
  34              		.loc 1 788 3 view .LVU2
 789:Drivers/STM32H7xx_HAL_Driver/Src/stm32h7xx_hal_flash_ex.c **** 
 790:Drivers/STM32H7xx_HAL_Driver/Src/stm32h7xx_hal_flash_ex.c ****   /* Flash Mass Erase */
 791:Drivers/STM32H7xx_HAL_Driver/Src/stm32h7xx_hal_flash_ex.c ****   if((Banks & FLASH_BANK_BOTH) == FLASH_BANK_BOTH)
  35              		.loc 1 791 3 view .LVU3
  36              		.loc 1 791 13 is_stmt 0 view .LVU4
  37 0000 01F00303 		and	r3, r1, #3
  38              		.loc 1 791 5 view .LVU5
  39 0004 032B     		cmp	r3, #3
  40 0006 24D0     		beq	.L5
 792:Drivers/STM32H7xx_HAL_Driver/Src/stm32h7xx_hal_flash_ex.c ****   {
 793:Drivers/STM32H7xx_HAL_Driver/Src/stm32h7xx_hal_flash_ex.c **** #if defined (FLASH_CR_PSIZE)
 794:Drivers/STM32H7xx_HAL_Driver/Src/stm32h7xx_hal_flash_ex.c ****     /* Reset Program/erase VoltageRange for Bank1 and Bank2 */
 795:Drivers/STM32H7xx_HAL_Driver/Src/stm32h7xx_hal_flash_ex.c ****     FLASH->CR1 &= (~FLASH_CR_PSIZE);
 796:Drivers/STM32H7xx_HAL_Driver/Src/stm32h7xx_hal_flash_ex.c ****     FLASH->CR2 &= (~FLASH_CR_PSIZE);
 797:Drivers/STM32H7xx_HAL_Driver/Src/stm32h7xx_hal_flash_ex.c **** 
 798:Drivers/STM32H7xx_HAL_Driver/Src/stm32h7xx_hal_flash_ex.c ****     /* Set voltage range */
 799:Drivers/STM32H7xx_HAL_Driver/Src/stm32h7xx_hal_flash_ex.c ****     FLASH->CR1 |= VoltageRange;
 800:Drivers/STM32H7xx_HAL_Driver/Src/stm32h7xx_hal_flash_ex.c ****     FLASH->CR2 |= VoltageRange;
 801:Drivers/STM32H7xx_HAL_Driver/Src/stm32h7xx_hal_flash_ex.c **** #endif /* FLASH_CR_PSIZE */
 802:Drivers/STM32H7xx_HAL_Driver/Src/stm32h7xx_hal_flash_ex.c **** 
 803:Drivers/STM32H7xx_HAL_Driver/Src/stm32h7xx_hal_flash_ex.c ****     /* Set Mass Erase Bit */
 804:Drivers/STM32H7xx_HAL_Driver/Src/stm32h7xx_hal_flash_ex.c ****     FLASH->OPTCR |= FLASH_OPTCR_MER;
 805:Drivers/STM32H7xx_HAL_Driver/Src/stm32h7xx_hal_flash_ex.c ****   }
 806:Drivers/STM32H7xx_HAL_Driver/Src/stm32h7xx_hal_flash_ex.c ****   else
 807:Drivers/STM32H7xx_HAL_Driver/Src/stm32h7xx_hal_flash_ex.c ****   {
 808:Drivers/STM32H7xx_HAL_Driver/Src/stm32h7xx_hal_flash_ex.c ****     /* Proceed to erase Flash Bank  */
 809:Drivers/STM32H7xx_HAL_Driver/Src/stm32h7xx_hal_flash_ex.c ****     if((Banks & FLASH_BANK_1) == FLASH_BANK_1)
  41              		.loc 1 809 5 is_stmt 1 view .LVU6
  42              		.loc 1 809 7 is_stmt 0 view .LVU7
  43 0008 11F0010F 		tst	r1, #1
  44 000c 0BD0     		beq	.L4
 810:Drivers/STM32H7xx_HAL_Driver/Src/stm32h7xx_hal_flash_ex.c ****     {
 811:Drivers/STM32H7xx_HAL_Driver/Src/stm32h7xx_hal_flash_ex.c **** #if defined (FLASH_CR_PSIZE)
 812:Drivers/STM32H7xx_HAL_Driver/Src/stm32h7xx_hal_flash_ex.c ****       /* Set Program/erase VoltageRange for Bank1 */
ARM GAS  C:\Users\chesn\AppData\Local\Temp\ccAfRyoq.s 			page 16


 813:Drivers/STM32H7xx_HAL_Driver/Src/stm32h7xx_hal_flash_ex.c ****       FLASH->CR1 &= (~FLASH_CR_PSIZE);
  45              		.loc 1 813 7 is_stmt 1 view .LVU8
  46              		.loc 1 813 18 is_stmt 0 view .LVU9
  47 000e 1D4B     		ldr	r3, .L6
  48 0010 DA68     		ldr	r2, [r3, #12]
  49 0012 22F03002 		bic	r2, r2, #48
  50 0016 DA60     		str	r2, [r3, #12]
 814:Drivers/STM32H7xx_HAL_Driver/Src/stm32h7xx_hal_flash_ex.c ****       FLASH->CR1 |=  VoltageRange;
  51              		.loc 1 814 7 is_stmt 1 view .LVU10
  52              		.loc 1 814 18 is_stmt 0 view .LVU11
  53 0018 DA68     		ldr	r2, [r3, #12]
  54 001a 0243     		orrs	r2, r2, r0
  55 001c DA60     		str	r2, [r3, #12]
 815:Drivers/STM32H7xx_HAL_Driver/Src/stm32h7xx_hal_flash_ex.c **** #endif /* FLASH_CR_PSIZE */
 816:Drivers/STM32H7xx_HAL_Driver/Src/stm32h7xx_hal_flash_ex.c **** 
 817:Drivers/STM32H7xx_HAL_Driver/Src/stm32h7xx_hal_flash_ex.c ****       /* Erase Bank1 */
 818:Drivers/STM32H7xx_HAL_Driver/Src/stm32h7xx_hal_flash_ex.c ****       FLASH->CR1 |= (FLASH_CR_BER | FLASH_CR_START);
  56              		.loc 1 818 7 is_stmt 1 view .LVU12
  57              		.loc 1 818 18 is_stmt 0 view .LVU13
  58 001e DA68     		ldr	r2, [r3, #12]
  59 0020 42F08802 		orr	r2, r2, #136
  60 0024 DA60     		str	r2, [r3, #12]
  61              	.L4:
 819:Drivers/STM32H7xx_HAL_Driver/Src/stm32h7xx_hal_flash_ex.c ****     }
 820:Drivers/STM32H7xx_HAL_Driver/Src/stm32h7xx_hal_flash_ex.c ****     if((Banks & FLASH_BANK_2) == FLASH_BANK_2)
  62              		.loc 1 820 5 is_stmt 1 view .LVU14
  63              		.loc 1 820 7 is_stmt 0 view .LVU15
  64 0026 11F0020F 		tst	r1, #2
  65 002a 11D0     		beq	.L1
 821:Drivers/STM32H7xx_HAL_Driver/Src/stm32h7xx_hal_flash_ex.c ****     {
 822:Drivers/STM32H7xx_HAL_Driver/Src/stm32h7xx_hal_flash_ex.c **** #if defined (FLASH_CR_PSIZE)
 823:Drivers/STM32H7xx_HAL_Driver/Src/stm32h7xx_hal_flash_ex.c ****       /* Set Program/erase VoltageRange for Bank2 */
 824:Drivers/STM32H7xx_HAL_Driver/Src/stm32h7xx_hal_flash_ex.c ****       FLASH->CR2 &= (~FLASH_CR_PSIZE);
  66              		.loc 1 824 7 is_stmt 1 view .LVU16
  67              		.loc 1 824 18 is_stmt 0 view .LVU17
  68 002c 154B     		ldr	r3, .L6
  69 002e D3F80C21 		ldr	r2, [r3, #268]
  70 0032 22F03002 		bic	r2, r2, #48
  71 0036 C3F80C21 		str	r2, [r3, #268]
 825:Drivers/STM32H7xx_HAL_Driver/Src/stm32h7xx_hal_flash_ex.c ****       FLASH->CR2 |= VoltageRange;
  72              		.loc 1 825 7 is_stmt 1 view .LVU18
  73              		.loc 1 825 18 is_stmt 0 view .LVU19
  74 003a D3F80C21 		ldr	r2, [r3, #268]
  75 003e 1043     		orrs	r0, r0, r2
  76              	.LVL1:
  77              		.loc 1 825 18 view .LVU20
  78 0040 C3F80C01 		str	r0, [r3, #268]
 826:Drivers/STM32H7xx_HAL_Driver/Src/stm32h7xx_hal_flash_ex.c **** #endif /* FLASH_CR_PSIZE */
 827:Drivers/STM32H7xx_HAL_Driver/Src/stm32h7xx_hal_flash_ex.c **** 
 828:Drivers/STM32H7xx_HAL_Driver/Src/stm32h7xx_hal_flash_ex.c ****       /* Erase Bank2 */
 829:Drivers/STM32H7xx_HAL_Driver/Src/stm32h7xx_hal_flash_ex.c ****       FLASH->CR2 |= (FLASH_CR_BER | FLASH_CR_START);
  79              		.loc 1 829 7 is_stmt 1 view .LVU21
  80              		.loc 1 829 18 is_stmt 0 view .LVU22
  81 0044 D3F80C21 		ldr	r2, [r3, #268]
  82 0048 42F08802 		orr	r2, r2, #136
  83 004c C3F80C21 		str	r2, [r3, #268]
  84              	.L1:
ARM GAS  C:\Users\chesn\AppData\Local\Temp\ccAfRyoq.s 			page 17


 830:Drivers/STM32H7xx_HAL_Driver/Src/stm32h7xx_hal_flash_ex.c ****     }
 831:Drivers/STM32H7xx_HAL_Driver/Src/stm32h7xx_hal_flash_ex.c ****   }
 832:Drivers/STM32H7xx_HAL_Driver/Src/stm32h7xx_hal_flash_ex.c **** }
  85              		.loc 1 832 1 view .LVU23
  86 0050 7047     		bx	lr
  87              	.LVL2:
  88              	.L5:
 795:Drivers/STM32H7xx_HAL_Driver/Src/stm32h7xx_hal_flash_ex.c ****     FLASH->CR2 &= (~FLASH_CR_PSIZE);
  89              		.loc 1 795 5 is_stmt 1 view .LVU24
 795:Drivers/STM32H7xx_HAL_Driver/Src/stm32h7xx_hal_flash_ex.c ****     FLASH->CR2 &= (~FLASH_CR_PSIZE);
  90              		.loc 1 795 16 is_stmt 0 view .LVU25
  91 0052 0C4B     		ldr	r3, .L6
  92 0054 DA68     		ldr	r2, [r3, #12]
  93 0056 22F03002 		bic	r2, r2, #48
  94 005a DA60     		str	r2, [r3, #12]
 796:Drivers/STM32H7xx_HAL_Driver/Src/stm32h7xx_hal_flash_ex.c **** 
  95              		.loc 1 796 5 is_stmt 1 view .LVU26
 796:Drivers/STM32H7xx_HAL_Driver/Src/stm32h7xx_hal_flash_ex.c **** 
  96              		.loc 1 796 16 is_stmt 0 view .LVU27
  97 005c D3F80C21 		ldr	r2, [r3, #268]
  98 0060 22F03002 		bic	r2, r2, #48
  99 0064 C3F80C21 		str	r2, [r3, #268]
 799:Drivers/STM32H7xx_HAL_Driver/Src/stm32h7xx_hal_flash_ex.c ****     FLASH->CR2 |= VoltageRange;
 100              		.loc 1 799 5 is_stmt 1 view .LVU28
 799:Drivers/STM32H7xx_HAL_Driver/Src/stm32h7xx_hal_flash_ex.c ****     FLASH->CR2 |= VoltageRange;
 101              		.loc 1 799 16 is_stmt 0 view .LVU29
 102 0068 DA68     		ldr	r2, [r3, #12]
 103 006a 0243     		orrs	r2, r2, r0
 104 006c DA60     		str	r2, [r3, #12]
 800:Drivers/STM32H7xx_HAL_Driver/Src/stm32h7xx_hal_flash_ex.c **** #endif /* FLASH_CR_PSIZE */
 105              		.loc 1 800 5 is_stmt 1 view .LVU30
 800:Drivers/STM32H7xx_HAL_Driver/Src/stm32h7xx_hal_flash_ex.c **** #endif /* FLASH_CR_PSIZE */
 106              		.loc 1 800 16 is_stmt 0 view .LVU31
 107 006e D3F80C21 		ldr	r2, [r3, #268]
 108 0072 1043     		orrs	r0, r0, r2
 109              	.LVL3:
 800:Drivers/STM32H7xx_HAL_Driver/Src/stm32h7xx_hal_flash_ex.c **** #endif /* FLASH_CR_PSIZE */
 110              		.loc 1 800 16 view .LVU32
 111 0074 C3F80C01 		str	r0, [r3, #268]
 804:Drivers/STM32H7xx_HAL_Driver/Src/stm32h7xx_hal_flash_ex.c ****   }
 112              		.loc 1 804 5 is_stmt 1 view .LVU33
 804:Drivers/STM32H7xx_HAL_Driver/Src/stm32h7xx_hal_flash_ex.c ****   }
 113              		.loc 1 804 18 is_stmt 0 view .LVU34
 114 0078 9A69     		ldr	r2, [r3, #24]
 115 007a 42F01002 		orr	r2, r2, #16
 116 007e 9A61     		str	r2, [r3, #24]
 117 0080 7047     		bx	lr
 118              	.L7:
 119 0082 00BF     		.align	2
 120              	.L6:
 121 0084 00200052 		.word	1375739904
 122              		.cfi_endproc
 123              	.LFE150:
 125              		.section	.text.FLASH_OB_EnableWRP,"ax",%progbits
 126              		.align	1
 127              		.syntax unified
 128              		.thumb
ARM GAS  C:\Users\chesn\AppData\Local\Temp\ccAfRyoq.s 			page 18


 129              		.thumb_func
 130              		.fpu fpv5-d16
 132              	FLASH_OB_EnableWRP:
 133              	.LVL4:
 134              	.LFB152:
 833:Drivers/STM32H7xx_HAL_Driver/Src/stm32h7xx_hal_flash_ex.c **** 
 834:Drivers/STM32H7xx_HAL_Driver/Src/stm32h7xx_hal_flash_ex.c **** /**
 835:Drivers/STM32H7xx_HAL_Driver/Src/stm32h7xx_hal_flash_ex.c ****   * @brief  Erase the specified FLASH memory sector
 836:Drivers/STM32H7xx_HAL_Driver/Src/stm32h7xx_hal_flash_ex.c ****   * @param  Sector FLASH sector to erase
 837:Drivers/STM32H7xx_HAL_Driver/Src/stm32h7xx_hal_flash_ex.c ****   *          This parameter can be a value of @ref FLASH_Sectors
 838:Drivers/STM32H7xx_HAL_Driver/Src/stm32h7xx_hal_flash_ex.c ****   * @param  Banks Banks to be erased
 839:Drivers/STM32H7xx_HAL_Driver/Src/stm32h7xx_hal_flash_ex.c ****   *          This parameter can be one of the following values:
 840:Drivers/STM32H7xx_HAL_Driver/Src/stm32h7xx_hal_flash_ex.c ****   *            @arg FLASH_BANK_1: Bank1 to be erased
 841:Drivers/STM32H7xx_HAL_Driver/Src/stm32h7xx_hal_flash_ex.c ****   *            @arg FLASH_BANK_2: Bank2 to be erased
 842:Drivers/STM32H7xx_HAL_Driver/Src/stm32h7xx_hal_flash_ex.c ****   *            @arg FLASH_BANK_BOTH: Bank1 and Bank2 to be erased
 843:Drivers/STM32H7xx_HAL_Driver/Src/stm32h7xx_hal_flash_ex.c ****   * @param  VoltageRange The device program/erase parallelism.
 844:Drivers/STM32H7xx_HAL_Driver/Src/stm32h7xx_hal_flash_ex.c ****   *          This parameter can be one of the following values:
 845:Drivers/STM32H7xx_HAL_Driver/Src/stm32h7xx_hal_flash_ex.c ****   *            @arg FLASH_VOLTAGE_RANGE_1 : Flash program/erase by 8 bits
 846:Drivers/STM32H7xx_HAL_Driver/Src/stm32h7xx_hal_flash_ex.c ****   *            @arg FLASH_VOLTAGE_RANGE_2 : Flash program/erase by 16 bits
 847:Drivers/STM32H7xx_HAL_Driver/Src/stm32h7xx_hal_flash_ex.c ****   *            @arg FLASH_VOLTAGE_RANGE_3 : Flash program/erase by 32 bits
 848:Drivers/STM32H7xx_HAL_Driver/Src/stm32h7xx_hal_flash_ex.c ****   *            @arg FLASH_VOLTAGE_RANGE_4 : Flash program/erase by 64 bits
 849:Drivers/STM32H7xx_HAL_Driver/Src/stm32h7xx_hal_flash_ex.c ****   *
 850:Drivers/STM32H7xx_HAL_Driver/Src/stm32h7xx_hal_flash_ex.c ****   * @retval None
 851:Drivers/STM32H7xx_HAL_Driver/Src/stm32h7xx_hal_flash_ex.c ****   */
 852:Drivers/STM32H7xx_HAL_Driver/Src/stm32h7xx_hal_flash_ex.c **** void FLASH_Erase_Sector(uint32_t Sector, uint32_t Banks, uint32_t VoltageRange)
 853:Drivers/STM32H7xx_HAL_Driver/Src/stm32h7xx_hal_flash_ex.c **** {
 854:Drivers/STM32H7xx_HAL_Driver/Src/stm32h7xx_hal_flash_ex.c ****   assert_param(IS_FLASH_SECTOR(Sector));
 855:Drivers/STM32H7xx_HAL_Driver/Src/stm32h7xx_hal_flash_ex.c ****   assert_param(IS_FLASH_BANK_EXCLUSIVE(Banks));
 856:Drivers/STM32H7xx_HAL_Driver/Src/stm32h7xx_hal_flash_ex.c **** #if defined (FLASH_CR_PSIZE)
 857:Drivers/STM32H7xx_HAL_Driver/Src/stm32h7xx_hal_flash_ex.c ****   assert_param(IS_VOLTAGERANGE(VoltageRange));
 858:Drivers/STM32H7xx_HAL_Driver/Src/stm32h7xx_hal_flash_ex.c **** #else
 859:Drivers/STM32H7xx_HAL_Driver/Src/stm32h7xx_hal_flash_ex.c ****   UNUSED(VoltageRange);
 860:Drivers/STM32H7xx_HAL_Driver/Src/stm32h7xx_hal_flash_ex.c **** #endif /* FLASH_CR_PSIZE */
 861:Drivers/STM32H7xx_HAL_Driver/Src/stm32h7xx_hal_flash_ex.c **** 
 862:Drivers/STM32H7xx_HAL_Driver/Src/stm32h7xx_hal_flash_ex.c ****   if((Banks & FLASH_BANK_1) == FLASH_BANK_1)
 863:Drivers/STM32H7xx_HAL_Driver/Src/stm32h7xx_hal_flash_ex.c ****   {
 864:Drivers/STM32H7xx_HAL_Driver/Src/stm32h7xx_hal_flash_ex.c **** #if defined (FLASH_CR_PSIZE)
 865:Drivers/STM32H7xx_HAL_Driver/Src/stm32h7xx_hal_flash_ex.c ****     /* Reset Program/erase VoltageRange and Sector Number for Bank1 */
 866:Drivers/STM32H7xx_HAL_Driver/Src/stm32h7xx_hal_flash_ex.c ****     FLASH->CR1 &= ~(FLASH_CR_PSIZE | FLASH_CR_SNB);
 867:Drivers/STM32H7xx_HAL_Driver/Src/stm32h7xx_hal_flash_ex.c **** 
 868:Drivers/STM32H7xx_HAL_Driver/Src/stm32h7xx_hal_flash_ex.c ****     FLASH->CR1 |= (FLASH_CR_SER | VoltageRange | (Sector << FLASH_CR_SNB_Pos) | FLASH_CR_START);
 869:Drivers/STM32H7xx_HAL_Driver/Src/stm32h7xx_hal_flash_ex.c **** #else
 870:Drivers/STM32H7xx_HAL_Driver/Src/stm32h7xx_hal_flash_ex.c ****     /* Reset Sector Number for Bank1 */
 871:Drivers/STM32H7xx_HAL_Driver/Src/stm32h7xx_hal_flash_ex.c ****     FLASH->CR1 &= ~(FLASH_CR_SNB);
 872:Drivers/STM32H7xx_HAL_Driver/Src/stm32h7xx_hal_flash_ex.c **** 
 873:Drivers/STM32H7xx_HAL_Driver/Src/stm32h7xx_hal_flash_ex.c ****     FLASH->CR1 |= (FLASH_CR_SER | (Sector << FLASH_CR_SNB_Pos) | FLASH_CR_START);
 874:Drivers/STM32H7xx_HAL_Driver/Src/stm32h7xx_hal_flash_ex.c **** #endif /* FLASH_CR_PSIZE */
 875:Drivers/STM32H7xx_HAL_Driver/Src/stm32h7xx_hal_flash_ex.c ****   }
 876:Drivers/STM32H7xx_HAL_Driver/Src/stm32h7xx_hal_flash_ex.c **** 
 877:Drivers/STM32H7xx_HAL_Driver/Src/stm32h7xx_hal_flash_ex.c ****   if((Banks & FLASH_BANK_2) == FLASH_BANK_2)
 878:Drivers/STM32H7xx_HAL_Driver/Src/stm32h7xx_hal_flash_ex.c ****   {
 879:Drivers/STM32H7xx_HAL_Driver/Src/stm32h7xx_hal_flash_ex.c **** #if defined (FLASH_CR_PSIZE)
 880:Drivers/STM32H7xx_HAL_Driver/Src/stm32h7xx_hal_flash_ex.c ****     /* Reset Program/erase VoltageRange and Sector Number for Bank2 */
 881:Drivers/STM32H7xx_HAL_Driver/Src/stm32h7xx_hal_flash_ex.c ****     FLASH->CR2 &= ~(FLASH_CR_PSIZE | FLASH_CR_SNB);
 882:Drivers/STM32H7xx_HAL_Driver/Src/stm32h7xx_hal_flash_ex.c **** 
 883:Drivers/STM32H7xx_HAL_Driver/Src/stm32h7xx_hal_flash_ex.c ****     FLASH->CR2 |= (FLASH_CR_SER | VoltageRange  | (Sector << FLASH_CR_SNB_Pos) | FLASH_CR_START);
 884:Drivers/STM32H7xx_HAL_Driver/Src/stm32h7xx_hal_flash_ex.c **** #else
ARM GAS  C:\Users\chesn\AppData\Local\Temp\ccAfRyoq.s 			page 19


 885:Drivers/STM32H7xx_HAL_Driver/Src/stm32h7xx_hal_flash_ex.c ****     /* Reset Sector Number for Bank2 */
 886:Drivers/STM32H7xx_HAL_Driver/Src/stm32h7xx_hal_flash_ex.c ****     FLASH->CR2 &= ~(FLASH_CR_SNB);
 887:Drivers/STM32H7xx_HAL_Driver/Src/stm32h7xx_hal_flash_ex.c **** 
 888:Drivers/STM32H7xx_HAL_Driver/Src/stm32h7xx_hal_flash_ex.c ****     FLASH->CR2 |= (FLASH_CR_SER | (Sector << FLASH_CR_SNB_Pos) | FLASH_CR_START);
 889:Drivers/STM32H7xx_HAL_Driver/Src/stm32h7xx_hal_flash_ex.c **** #endif /* FLASH_CR_PSIZE */
 890:Drivers/STM32H7xx_HAL_Driver/Src/stm32h7xx_hal_flash_ex.c ****   }
 891:Drivers/STM32H7xx_HAL_Driver/Src/stm32h7xx_hal_flash_ex.c **** }
 892:Drivers/STM32H7xx_HAL_Driver/Src/stm32h7xx_hal_flash_ex.c **** 
 893:Drivers/STM32H7xx_HAL_Driver/Src/stm32h7xx_hal_flash_ex.c **** /**
 894:Drivers/STM32H7xx_HAL_Driver/Src/stm32h7xx_hal_flash_ex.c ****   * @brief  Enable the write protection of the desired bank1 or bank 2 sectors
 895:Drivers/STM32H7xx_HAL_Driver/Src/stm32h7xx_hal_flash_ex.c ****   * @param  WRPSector specifies the sector(s) to be write protected.
 896:Drivers/STM32H7xx_HAL_Driver/Src/stm32h7xx_hal_flash_ex.c ****   *          This parameter can be one of the following values:
 897:Drivers/STM32H7xx_HAL_Driver/Src/stm32h7xx_hal_flash_ex.c ****   *            @arg WRPSector:  A combination of OB_WRP_SECTOR_0 to OB_WRP_SECTOR_7 or OB_WRP_SECTO
 898:Drivers/STM32H7xx_HAL_Driver/Src/stm32h7xx_hal_flash_ex.c ****   *
 899:Drivers/STM32H7xx_HAL_Driver/Src/stm32h7xx_hal_flash_ex.c ****   * @param  Banks the specific bank to apply WRP sectors
 900:Drivers/STM32H7xx_HAL_Driver/Src/stm32h7xx_hal_flash_ex.c ****   *          This parameter can be one of the following values:
 901:Drivers/STM32H7xx_HAL_Driver/Src/stm32h7xx_hal_flash_ex.c ****   *            @arg FLASH_BANK_1: enable WRP on specified bank1 sectors
 902:Drivers/STM32H7xx_HAL_Driver/Src/stm32h7xx_hal_flash_ex.c ****   *            @arg FLASH_BANK_2: enable WRP on specified bank2 sectors
 903:Drivers/STM32H7xx_HAL_Driver/Src/stm32h7xx_hal_flash_ex.c ****   *            @arg FLASH_BANK_BOTH: enable WRP on both bank1 and bank2 specified sectors
 904:Drivers/STM32H7xx_HAL_Driver/Src/stm32h7xx_hal_flash_ex.c ****   *
 905:Drivers/STM32H7xx_HAL_Driver/Src/stm32h7xx_hal_flash_ex.c ****   * @retval HAL FLASH State
 906:Drivers/STM32H7xx_HAL_Driver/Src/stm32h7xx_hal_flash_ex.c ****   */
 907:Drivers/STM32H7xx_HAL_Driver/Src/stm32h7xx_hal_flash_ex.c **** static void FLASH_OB_EnableWRP(uint32_t WRPSector, uint32_t Banks)
 908:Drivers/STM32H7xx_HAL_Driver/Src/stm32h7xx_hal_flash_ex.c **** {
 135              		.loc 1 908 1 is_stmt 1 view -0
 136              		.cfi_startproc
 137              		@ args = 0, pretend = 0, frame = 0
 138              		@ frame_needed = 0, uses_anonymous_args = 0
 139              		@ link register save eliminated.
 140              		.loc 1 908 1 is_stmt 0 view .LVU36
 141 0000 10B4     		push	{r4}
 142              	.LCFI0:
 143              		.cfi_def_cfa_offset 4
 144              		.cfi_offset 4, -4
 909:Drivers/STM32H7xx_HAL_Driver/Src/stm32h7xx_hal_flash_ex.c ****   /* Check the parameters */
 910:Drivers/STM32H7xx_HAL_Driver/Src/stm32h7xx_hal_flash_ex.c ****   assert_param(IS_OB_WRP_SECTOR(WRPSector));
 145              		.loc 1 910 3 is_stmt 1 view .LVU37
 911:Drivers/STM32H7xx_HAL_Driver/Src/stm32h7xx_hal_flash_ex.c ****   assert_param(IS_FLASH_BANK(Banks));
 146              		.loc 1 911 3 view .LVU38
 912:Drivers/STM32H7xx_HAL_Driver/Src/stm32h7xx_hal_flash_ex.c **** 
 913:Drivers/STM32H7xx_HAL_Driver/Src/stm32h7xx_hal_flash_ex.c ****   if((Banks & FLASH_BANK_1) == FLASH_BANK_1)
 147              		.loc 1 913 3 view .LVU39
 148              		.loc 1 913 5 is_stmt 0 view .LVU40
 149 0002 11F0010F 		tst	r1, #1
 150 0006 05D0     		beq	.L9
 914:Drivers/STM32H7xx_HAL_Driver/Src/stm32h7xx_hal_flash_ex.c ****   {
 915:Drivers/STM32H7xx_HAL_Driver/Src/stm32h7xx_hal_flash_ex.c ****     /* Enable Write Protection for bank 1 */
 916:Drivers/STM32H7xx_HAL_Driver/Src/stm32h7xx_hal_flash_ex.c ****     FLASH->WPSN_PRG1 &= (~(WRPSector & FLASH_WPSN_WRPSN));
 151              		.loc 1 916 5 is_stmt 1 view .LVU41
 152              		.loc 1 916 22 is_stmt 0 view .LVU42
 153 0008 094A     		ldr	r2, .L12
 154 000a D36B     		ldr	r3, [r2, #60]
 155              		.loc 1 916 38 view .LVU43
 156 000c C4B2     		uxtb	r4, r0
 157              		.loc 1 916 22 view .LVU44
 158 000e 23EA0403 		bic	r3, r3, r4
 159 0012 D363     		str	r3, [r2, #60]
ARM GAS  C:\Users\chesn\AppData\Local\Temp\ccAfRyoq.s 			page 20


 160              	.L9:
 917:Drivers/STM32H7xx_HAL_Driver/Src/stm32h7xx_hal_flash_ex.c ****   }
 918:Drivers/STM32H7xx_HAL_Driver/Src/stm32h7xx_hal_flash_ex.c **** 
 919:Drivers/STM32H7xx_HAL_Driver/Src/stm32h7xx_hal_flash_ex.c ****   if((Banks & FLASH_BANK_2) == FLASH_BANK_2)
 161              		.loc 1 919 3 is_stmt 1 view .LVU45
 162              		.loc 1 919 5 is_stmt 0 view .LVU46
 163 0014 11F0020F 		tst	r1, #2
 164 0018 07D0     		beq	.L8
 920:Drivers/STM32H7xx_HAL_Driver/Src/stm32h7xx_hal_flash_ex.c ****   {
 921:Drivers/STM32H7xx_HAL_Driver/Src/stm32h7xx_hal_flash_ex.c ****     /* Enable Write Protection for bank 2 */
 922:Drivers/STM32H7xx_HAL_Driver/Src/stm32h7xx_hal_flash_ex.c ****     FLASH->WPSN_PRG2 &= (~(WRPSector & FLASH_WPSN_WRPSN));
 165              		.loc 1 922 5 is_stmt 1 view .LVU47
 166              		.loc 1 922 22 is_stmt 0 view .LVU48
 167 001a 054A     		ldr	r2, .L12
 168 001c D2F83C31 		ldr	r3, [r2, #316]
 169              		.loc 1 922 38 view .LVU49
 170 0020 C0B2     		uxtb	r0, r0
 171              	.LVL5:
 172              		.loc 1 922 22 view .LVU50
 173 0022 23EA0000 		bic	r0, r3, r0
 174 0026 C2F83C01 		str	r0, [r2, #316]
 175              	.L8:
 923:Drivers/STM32H7xx_HAL_Driver/Src/stm32h7xx_hal_flash_ex.c ****   }
 924:Drivers/STM32H7xx_HAL_Driver/Src/stm32h7xx_hal_flash_ex.c **** }
 176              		.loc 1 924 1 view .LVU51
 177 002a 5DF8044B 		ldr	r4, [sp], #4
 178              	.LCFI1:
 179              		.cfi_restore 4
 180              		.cfi_def_cfa_offset 0
 181 002e 7047     		bx	lr
 182              	.L13:
 183              		.align	2
 184              	.L12:
 185 0030 00200052 		.word	1375739904
 186              		.cfi_endproc
 187              	.LFE152:
 189              		.section	.text.FLASH_OB_DisableWRP,"ax",%progbits
 190              		.align	1
 191              		.syntax unified
 192              		.thumb
 193              		.thumb_func
 194              		.fpu fpv5-d16
 196              	FLASH_OB_DisableWRP:
 197              	.LVL6:
 198              	.LFB153:
 925:Drivers/STM32H7xx_HAL_Driver/Src/stm32h7xx_hal_flash_ex.c **** 
 926:Drivers/STM32H7xx_HAL_Driver/Src/stm32h7xx_hal_flash_ex.c **** /**
 927:Drivers/STM32H7xx_HAL_Driver/Src/stm32h7xx_hal_flash_ex.c ****   * @brief  Disable the write protection of the desired bank1 or bank 2 sectors
 928:Drivers/STM32H7xx_HAL_Driver/Src/stm32h7xx_hal_flash_ex.c ****   * @param  WRPSector specifies the sector(s) to disable write protection.
 929:Drivers/STM32H7xx_HAL_Driver/Src/stm32h7xx_hal_flash_ex.c ****   *          This parameter can be one of the following values:
 930:Drivers/STM32H7xx_HAL_Driver/Src/stm32h7xx_hal_flash_ex.c ****   *            @arg WRPSector:  A combination of FLASH_OB_WRP_SECTOR_0 to FLASH_OB_WRP_SECTOR_7 or 
 931:Drivers/STM32H7xx_HAL_Driver/Src/stm32h7xx_hal_flash_ex.c ****   *
 932:Drivers/STM32H7xx_HAL_Driver/Src/stm32h7xx_hal_flash_ex.c ****   * @param  Banks the specific bank to apply WRP sectors
 933:Drivers/STM32H7xx_HAL_Driver/Src/stm32h7xx_hal_flash_ex.c ****   *          This parameter can be one of the following values:
 934:Drivers/STM32H7xx_HAL_Driver/Src/stm32h7xx_hal_flash_ex.c ****   *            @arg FLASH_BANK_1: disable WRP on specified bank1 sectors
 935:Drivers/STM32H7xx_HAL_Driver/Src/stm32h7xx_hal_flash_ex.c ****   *            @arg FLASH_BANK_2: disable WRP on specified bank2 sectors
 936:Drivers/STM32H7xx_HAL_Driver/Src/stm32h7xx_hal_flash_ex.c ****   *            @arg FLASH_BANK_BOTH: disable WRP on both bank1 and bank2 specified sectors
ARM GAS  C:\Users\chesn\AppData\Local\Temp\ccAfRyoq.s 			page 21


 937:Drivers/STM32H7xx_HAL_Driver/Src/stm32h7xx_hal_flash_ex.c ****   *
 938:Drivers/STM32H7xx_HAL_Driver/Src/stm32h7xx_hal_flash_ex.c ****   * @retval HAL FLASH State
 939:Drivers/STM32H7xx_HAL_Driver/Src/stm32h7xx_hal_flash_ex.c ****   */
 940:Drivers/STM32H7xx_HAL_Driver/Src/stm32h7xx_hal_flash_ex.c **** static void FLASH_OB_DisableWRP(uint32_t WRPSector, uint32_t Banks)
 941:Drivers/STM32H7xx_HAL_Driver/Src/stm32h7xx_hal_flash_ex.c **** {
 199              		.loc 1 941 1 is_stmt 1 view -0
 200              		.cfi_startproc
 201              		@ args = 0, pretend = 0, frame = 0
 202              		@ frame_needed = 0, uses_anonymous_args = 0
 203              		@ link register save eliminated.
 204              		.loc 1 941 1 is_stmt 0 view .LVU53
 205 0000 10B4     		push	{r4}
 206              	.LCFI2:
 207              		.cfi_def_cfa_offset 4
 208              		.cfi_offset 4, -4
 942:Drivers/STM32H7xx_HAL_Driver/Src/stm32h7xx_hal_flash_ex.c ****   /* Check the parameters */
 943:Drivers/STM32H7xx_HAL_Driver/Src/stm32h7xx_hal_flash_ex.c ****   assert_param(IS_OB_WRP_SECTOR(WRPSector));
 209              		.loc 1 943 3 is_stmt 1 view .LVU54
 944:Drivers/STM32H7xx_HAL_Driver/Src/stm32h7xx_hal_flash_ex.c ****   assert_param(IS_FLASH_BANK(Banks));
 210              		.loc 1 944 3 view .LVU55
 945:Drivers/STM32H7xx_HAL_Driver/Src/stm32h7xx_hal_flash_ex.c **** 
 946:Drivers/STM32H7xx_HAL_Driver/Src/stm32h7xx_hal_flash_ex.c ****   if((Banks & FLASH_BANK_1) == FLASH_BANK_1)
 211              		.loc 1 946 3 view .LVU56
 212              		.loc 1 946 5 is_stmt 0 view .LVU57
 213 0002 11F0010F 		tst	r1, #1
 214 0006 04D0     		beq	.L15
 947:Drivers/STM32H7xx_HAL_Driver/Src/stm32h7xx_hal_flash_ex.c ****   {
 948:Drivers/STM32H7xx_HAL_Driver/Src/stm32h7xx_hal_flash_ex.c ****     /* Disable Write Protection for bank 1 */
 949:Drivers/STM32H7xx_HAL_Driver/Src/stm32h7xx_hal_flash_ex.c ****     FLASH->WPSN_PRG1 |= (WRPSector & FLASH_WPSN_WRPSN);
 215              		.loc 1 949 5 is_stmt 1 view .LVU58
 216              		.loc 1 949 22 is_stmt 0 view .LVU59
 217 0008 084A     		ldr	r2, .L18
 218 000a D36B     		ldr	r3, [r2, #60]
 219              		.loc 1 949 36 view .LVU60
 220 000c C4B2     		uxtb	r4, r0
 221              		.loc 1 949 22 view .LVU61
 222 000e 2343     		orrs	r3, r3, r4
 223 0010 D363     		str	r3, [r2, #60]
 224              	.L15:
 950:Drivers/STM32H7xx_HAL_Driver/Src/stm32h7xx_hal_flash_ex.c ****   }
 951:Drivers/STM32H7xx_HAL_Driver/Src/stm32h7xx_hal_flash_ex.c **** 
 952:Drivers/STM32H7xx_HAL_Driver/Src/stm32h7xx_hal_flash_ex.c ****   if((Banks & FLASH_BANK_2) == FLASH_BANK_2)
 225              		.loc 1 952 3 is_stmt 1 view .LVU62
 226              		.loc 1 952 5 is_stmt 0 view .LVU63
 227 0012 11F0020F 		tst	r1, #2
 228 0016 06D0     		beq	.L14
 953:Drivers/STM32H7xx_HAL_Driver/Src/stm32h7xx_hal_flash_ex.c ****   {
 954:Drivers/STM32H7xx_HAL_Driver/Src/stm32h7xx_hal_flash_ex.c ****     /* Disable Write Protection for bank 2 */
 955:Drivers/STM32H7xx_HAL_Driver/Src/stm32h7xx_hal_flash_ex.c ****     FLASH->WPSN_PRG2 |= (WRPSector & FLASH_WPSN_WRPSN);
 229              		.loc 1 955 5 is_stmt 1 view .LVU64
 230              		.loc 1 955 22 is_stmt 0 view .LVU65
 231 0018 044A     		ldr	r2, .L18
 232 001a D2F83C31 		ldr	r3, [r2, #316]
 233              		.loc 1 955 36 view .LVU66
 234 001e C0B2     		uxtb	r0, r0
 235              	.LVL7:
 236              		.loc 1 955 22 view .LVU67
ARM GAS  C:\Users\chesn\AppData\Local\Temp\ccAfRyoq.s 			page 22


 237 0020 1843     		orrs	r0, r0, r3
 238 0022 C2F83C01 		str	r0, [r2, #316]
 239              	.L14:
 956:Drivers/STM32H7xx_HAL_Driver/Src/stm32h7xx_hal_flash_ex.c ****   }
 957:Drivers/STM32H7xx_HAL_Driver/Src/stm32h7xx_hal_flash_ex.c **** }
 240              		.loc 1 957 1 view .LVU68
 241 0026 5DF8044B 		ldr	r4, [sp], #4
 242              	.LCFI3:
 243              		.cfi_restore 4
 244              		.cfi_def_cfa_offset 0
 245 002a 7047     		bx	lr
 246              	.L19:
 247              		.align	2
 248              	.L18:
 249 002c 00200052 		.word	1375739904
 250              		.cfi_endproc
 251              	.LFE153:
 253              		.section	.text.FLASH_OB_GetWRP,"ax",%progbits
 254              		.align	1
 255              		.syntax unified
 256              		.thumb
 257              		.thumb_func
 258              		.fpu fpv5-d16
 260              	FLASH_OB_GetWRP:
 261              	.LVL8:
 262              	.LFB154:
 958:Drivers/STM32H7xx_HAL_Driver/Src/stm32h7xx_hal_flash_ex.c **** 
 959:Drivers/STM32H7xx_HAL_Driver/Src/stm32h7xx_hal_flash_ex.c **** /**
 960:Drivers/STM32H7xx_HAL_Driver/Src/stm32h7xx_hal_flash_ex.c ****   * @brief  Get the write protection of the given bank 1 or bank 2 sectors
 961:Drivers/STM32H7xx_HAL_Driver/Src/stm32h7xx_hal_flash_ex.c ****   * @param  WRPState gives the write protection state on the given bank.
 962:Drivers/STM32H7xx_HAL_Driver/Src/stm32h7xx_hal_flash_ex.c ****   *          This parameter can be one of the following values:
 963:Drivers/STM32H7xx_HAL_Driver/Src/stm32h7xx_hal_flash_ex.c ****   *          @arg WRPState: OB_WRPSTATE_DISABLE or OB_WRPSTATE_ENABLE
 964:Drivers/STM32H7xx_HAL_Driver/Src/stm32h7xx_hal_flash_ex.c **** 
 965:Drivers/STM32H7xx_HAL_Driver/Src/stm32h7xx_hal_flash_ex.c ****   * @param  WRPSector gives the write protected sector(s) on the given bank .
 966:Drivers/STM32H7xx_HAL_Driver/Src/stm32h7xx_hal_flash_ex.c ****   *          This parameter can be one of the following values:
 967:Drivers/STM32H7xx_HAL_Driver/Src/stm32h7xx_hal_flash_ex.c ****   *          @arg WRPSector: A combination of FLASH_OB_WRP_SECTOR_0 to FLASH_OB_WRP_SECTOR_7 or FLA
 968:Drivers/STM32H7xx_HAL_Driver/Src/stm32h7xx_hal_flash_ex.c ****   *
 969:Drivers/STM32H7xx_HAL_Driver/Src/stm32h7xx_hal_flash_ex.c ****   * @param  Bank the specific bank to apply WRP sectors
 970:Drivers/STM32H7xx_HAL_Driver/Src/stm32h7xx_hal_flash_ex.c ****   *          This parameter can be exclusively one of the following values:
 971:Drivers/STM32H7xx_HAL_Driver/Src/stm32h7xx_hal_flash_ex.c ****   *            @arg FLASH_BANK_1: Get bank1 WRP sectors
 972:Drivers/STM32H7xx_HAL_Driver/Src/stm32h7xx_hal_flash_ex.c ****   *            @arg FLASH_BANK_2: Get bank2 WRP sectors
 973:Drivers/STM32H7xx_HAL_Driver/Src/stm32h7xx_hal_flash_ex.c ****   *            @arg FLASH_BANK_BOTH: note allowed in this functions
 974:Drivers/STM32H7xx_HAL_Driver/Src/stm32h7xx_hal_flash_ex.c ****   *
 975:Drivers/STM32H7xx_HAL_Driver/Src/stm32h7xx_hal_flash_ex.c ****   * @retval HAL FLASH State
 976:Drivers/STM32H7xx_HAL_Driver/Src/stm32h7xx_hal_flash_ex.c ****   */
 977:Drivers/STM32H7xx_HAL_Driver/Src/stm32h7xx_hal_flash_ex.c **** static void FLASH_OB_GetWRP(uint32_t *WRPState, uint32_t *WRPSector, uint32_t Bank)
 978:Drivers/STM32H7xx_HAL_Driver/Src/stm32h7xx_hal_flash_ex.c **** {
 263              		.loc 1 978 1 is_stmt 1 view -0
 264              		.cfi_startproc
 265              		@ args = 0, pretend = 0, frame = 0
 266              		@ frame_needed = 0, uses_anonymous_args = 0
 267              		@ link register save eliminated.
 979:Drivers/STM32H7xx_HAL_Driver/Src/stm32h7xx_hal_flash_ex.c ****   uint32_t regvalue = 0U;
 268              		.loc 1 979 3 view .LVU70
 980:Drivers/STM32H7xx_HAL_Driver/Src/stm32h7xx_hal_flash_ex.c **** 
 981:Drivers/STM32H7xx_HAL_Driver/Src/stm32h7xx_hal_flash_ex.c ****   if((Bank & FLASH_BANK_BOTH) == FLASH_BANK_1)
 269              		.loc 1 981 3 view .LVU71
ARM GAS  C:\Users\chesn\AppData\Local\Temp\ccAfRyoq.s 			page 23


 270              		.loc 1 981 12 is_stmt 0 view .LVU72
 271 0000 02F00302 		and	r2, r2, #3
 272              	.LVL9:
 273              		.loc 1 981 5 view .LVU73
 274 0004 012A     		cmp	r2, #1
 275 0006 08D0     		beq	.L26
 979:Drivers/STM32H7xx_HAL_Driver/Src/stm32h7xx_hal_flash_ex.c ****   uint32_t regvalue = 0U;
 276              		.loc 1 979 12 view .LVU74
 277 0008 0023     		movs	r3, #0
 278              	.LVL10:
 279              	.L21:
 982:Drivers/STM32H7xx_HAL_Driver/Src/stm32h7xx_hal_flash_ex.c ****   {
 983:Drivers/STM32H7xx_HAL_Driver/Src/stm32h7xx_hal_flash_ex.c ****     regvalue = FLASH->WPSN_CUR1;
 984:Drivers/STM32H7xx_HAL_Driver/Src/stm32h7xx_hal_flash_ex.c ****   }
 985:Drivers/STM32H7xx_HAL_Driver/Src/stm32h7xx_hal_flash_ex.c **** 
 986:Drivers/STM32H7xx_HAL_Driver/Src/stm32h7xx_hal_flash_ex.c ****   if((Bank & FLASH_BANK_BOTH) == FLASH_BANK_2)
 280              		.loc 1 986 3 is_stmt 1 view .LVU75
 281              		.loc 1 986 5 is_stmt 0 view .LVU76
 282 000a 022A     		cmp	r2, #2
 283 000c 08D0     		beq	.L27
 284              	.L22:
 987:Drivers/STM32H7xx_HAL_Driver/Src/stm32h7xx_hal_flash_ex.c ****   {
 988:Drivers/STM32H7xx_HAL_Driver/Src/stm32h7xx_hal_flash_ex.c ****     regvalue = FLASH->WPSN_CUR2;
 989:Drivers/STM32H7xx_HAL_Driver/Src/stm32h7xx_hal_flash_ex.c ****   }
 990:Drivers/STM32H7xx_HAL_Driver/Src/stm32h7xx_hal_flash_ex.c **** 
 991:Drivers/STM32H7xx_HAL_Driver/Src/stm32h7xx_hal_flash_ex.c ****   (*WRPSector) = (~regvalue) & FLASH_WPSN_WRPSN;
 285              		.loc 1 991 3 is_stmt 1 view .LVU77
 286              		.loc 1 991 19 is_stmt 0 view .LVU78
 287 000e DB43     		mvns	r3, r3
 288              	.LVL11:
 289              		.loc 1 991 30 view .LVU79
 290 0010 DBB2     		uxtb	r3, r3
 291              	.LVL12:
 292              		.loc 1 991 16 view .LVU80
 293 0012 0B60     		str	r3, [r1]
 992:Drivers/STM32H7xx_HAL_Driver/Src/stm32h7xx_hal_flash_ex.c **** 
 993:Drivers/STM32H7xx_HAL_Driver/Src/stm32h7xx_hal_flash_ex.c ****   if(*WRPSector == 0U)
 294              		.loc 1 993 3 is_stmt 1 view .LVU81
 295              		.loc 1 993 5 is_stmt 0 view .LVU82
 296 0014 43B9     		cbnz	r3, .L23
 994:Drivers/STM32H7xx_HAL_Driver/Src/stm32h7xx_hal_flash_ex.c ****   {
 995:Drivers/STM32H7xx_HAL_Driver/Src/stm32h7xx_hal_flash_ex.c ****     (*WRPState) = OB_WRPSTATE_DISABLE;
 297              		.loc 1 995 5 is_stmt 1 view .LVU83
 298              		.loc 1 995 17 is_stmt 0 view .LVU84
 299 0016 0360     		str	r3, [r0]
 300 0018 7047     		bx	lr
 301              	.LVL13:
 302              	.L26:
 983:Drivers/STM32H7xx_HAL_Driver/Src/stm32h7xx_hal_flash_ex.c ****   }
 303              		.loc 1 983 5 is_stmt 1 view .LVU85
 983:Drivers/STM32H7xx_HAL_Driver/Src/stm32h7xx_hal_flash_ex.c ****   }
 304              		.loc 1 983 14 is_stmt 0 view .LVU86
 305 001a 054B     		ldr	r3, .L28
 306 001c 9B6B     		ldr	r3, [r3, #56]
 307              	.LVL14:
 983:Drivers/STM32H7xx_HAL_Driver/Src/stm32h7xx_hal_flash_ex.c ****   }
 308              		.loc 1 983 14 view .LVU87
ARM GAS  C:\Users\chesn\AppData\Local\Temp\ccAfRyoq.s 			page 24


 309 001e F4E7     		b	.L21
 310              	.L27:
 988:Drivers/STM32H7xx_HAL_Driver/Src/stm32h7xx_hal_flash_ex.c ****   }
 311              		.loc 1 988 5 is_stmt 1 view .LVU88
 988:Drivers/STM32H7xx_HAL_Driver/Src/stm32h7xx_hal_flash_ex.c ****   }
 312              		.loc 1 988 14 is_stmt 0 view .LVU89
 313 0020 034B     		ldr	r3, .L28
 314              	.LVL15:
 988:Drivers/STM32H7xx_HAL_Driver/Src/stm32h7xx_hal_flash_ex.c ****   }
 315              		.loc 1 988 14 view .LVU90
 316 0022 D3F83831 		ldr	r3, [r3, #312]
 317              	.LVL16:
 988:Drivers/STM32H7xx_HAL_Driver/Src/stm32h7xx_hal_flash_ex.c ****   }
 318              		.loc 1 988 14 view .LVU91
 319 0026 F2E7     		b	.L22
 320              	.LVL17:
 321              	.L23:
 996:Drivers/STM32H7xx_HAL_Driver/Src/stm32h7xx_hal_flash_ex.c ****   }
 997:Drivers/STM32H7xx_HAL_Driver/Src/stm32h7xx_hal_flash_ex.c ****   else
 998:Drivers/STM32H7xx_HAL_Driver/Src/stm32h7xx_hal_flash_ex.c ****   {
 999:Drivers/STM32H7xx_HAL_Driver/Src/stm32h7xx_hal_flash_ex.c ****     (*WRPState) = OB_WRPSTATE_ENABLE;
 322              		.loc 1 999 5 is_stmt 1 view .LVU92
 323              		.loc 1 999 17 is_stmt 0 view .LVU93
 324 0028 0123     		movs	r3, #1
 325 002a 0360     		str	r3, [r0]
1000:Drivers/STM32H7xx_HAL_Driver/Src/stm32h7xx_hal_flash_ex.c ****   }
1001:Drivers/STM32H7xx_HAL_Driver/Src/stm32h7xx_hal_flash_ex.c **** }
 326              		.loc 1 1001 1 view .LVU94
 327 002c 7047     		bx	lr
 328              	.L29:
 329 002e 00BF     		.align	2
 330              	.L28:
 331 0030 00200052 		.word	1375739904
 332              		.cfi_endproc
 333              	.LFE154:
 335              		.section	.text.FLASH_OB_RDPConfig,"ax",%progbits
 336              		.align	1
 337              		.syntax unified
 338              		.thumb
 339              		.thumb_func
 340              		.fpu fpv5-d16
 342              	FLASH_OB_RDPConfig:
 343              	.LVL18:
 344              	.LFB155:
1002:Drivers/STM32H7xx_HAL_Driver/Src/stm32h7xx_hal_flash_ex.c **** 
1003:Drivers/STM32H7xx_HAL_Driver/Src/stm32h7xx_hal_flash_ex.c **** /**
1004:Drivers/STM32H7xx_HAL_Driver/Src/stm32h7xx_hal_flash_ex.c ****   * @brief  Set the read protection level.
1005:Drivers/STM32H7xx_HAL_Driver/Src/stm32h7xx_hal_flash_ex.c ****   *
1006:Drivers/STM32H7xx_HAL_Driver/Src/stm32h7xx_hal_flash_ex.c ****   * @note   To configure the RDP level, the option lock bit OPTLOCK must be
1007:Drivers/STM32H7xx_HAL_Driver/Src/stm32h7xx_hal_flash_ex.c ****   *         cleared with the call of the HAL_FLASH_OB_Unlock() function.
1008:Drivers/STM32H7xx_HAL_Driver/Src/stm32h7xx_hal_flash_ex.c ****   * @note   To validate the RDP level, the option bytes must be reloaded
1009:Drivers/STM32H7xx_HAL_Driver/Src/stm32h7xx_hal_flash_ex.c ****   *         through the call of the HAL_FLASH_OB_Launch() function.
1010:Drivers/STM32H7xx_HAL_Driver/Src/stm32h7xx_hal_flash_ex.c ****   * @note   !!! Warning : When enabling OB_RDP level 2 it's no more possible
1011:Drivers/STM32H7xx_HAL_Driver/Src/stm32h7xx_hal_flash_ex.c ****   *         to go back to level 1 or 0 !!!
1012:Drivers/STM32H7xx_HAL_Driver/Src/stm32h7xx_hal_flash_ex.c ****   *
1013:Drivers/STM32H7xx_HAL_Driver/Src/stm32h7xx_hal_flash_ex.c ****   * @param  RDPLevel specifies the read protection level.
1014:Drivers/STM32H7xx_HAL_Driver/Src/stm32h7xx_hal_flash_ex.c ****   *         This parameter can be one of the following values:
ARM GAS  C:\Users\chesn\AppData\Local\Temp\ccAfRyoq.s 			page 25


1015:Drivers/STM32H7xx_HAL_Driver/Src/stm32h7xx_hal_flash_ex.c ****   *            @arg OB_RDP_LEVEL_0: No protection
1016:Drivers/STM32H7xx_HAL_Driver/Src/stm32h7xx_hal_flash_ex.c ****   *            @arg OB_RDP_LEVEL_1: Read protection of the memory
1017:Drivers/STM32H7xx_HAL_Driver/Src/stm32h7xx_hal_flash_ex.c ****   *            @arg OB_RDP_LEVEL_2: Full chip protection
1018:Drivers/STM32H7xx_HAL_Driver/Src/stm32h7xx_hal_flash_ex.c ****   *
1019:Drivers/STM32H7xx_HAL_Driver/Src/stm32h7xx_hal_flash_ex.c ****   * @retval HAL status
1020:Drivers/STM32H7xx_HAL_Driver/Src/stm32h7xx_hal_flash_ex.c ****   */
1021:Drivers/STM32H7xx_HAL_Driver/Src/stm32h7xx_hal_flash_ex.c **** static void FLASH_OB_RDPConfig(uint32_t RDPLevel)
1022:Drivers/STM32H7xx_HAL_Driver/Src/stm32h7xx_hal_flash_ex.c **** {
 345              		.loc 1 1022 1 is_stmt 1 view -0
 346              		.cfi_startproc
 347              		@ args = 0, pretend = 0, frame = 0
 348              		@ frame_needed = 0, uses_anonymous_args = 0
 349              		@ link register save eliminated.
1023:Drivers/STM32H7xx_HAL_Driver/Src/stm32h7xx_hal_flash_ex.c ****   /* Check the parameters */
1024:Drivers/STM32H7xx_HAL_Driver/Src/stm32h7xx_hal_flash_ex.c ****   assert_param(IS_OB_RDP_LEVEL(RDPLevel));
 350              		.loc 1 1024 3 view .LVU96
1025:Drivers/STM32H7xx_HAL_Driver/Src/stm32h7xx_hal_flash_ex.c **** 
1026:Drivers/STM32H7xx_HAL_Driver/Src/stm32h7xx_hal_flash_ex.c ****   /* Configure the RDP level in the option bytes register */
1027:Drivers/STM32H7xx_HAL_Driver/Src/stm32h7xx_hal_flash_ex.c ****   MODIFY_REG(FLASH->OPTSR_PRG, FLASH_OPTSR_RDP, RDPLevel);
 351              		.loc 1 1027 3 view .LVU97
 352 0000 034A     		ldr	r2, .L31
 353 0002 136A     		ldr	r3, [r2, #32]
 354 0004 23F47F43 		bic	r3, r3, #65280
 355 0008 0343     		orrs	r3, r3, r0
 356 000a 1362     		str	r3, [r2, #32]
1028:Drivers/STM32H7xx_HAL_Driver/Src/stm32h7xx_hal_flash_ex.c **** }
 357              		.loc 1 1028 1 is_stmt 0 view .LVU98
 358 000c 7047     		bx	lr
 359              	.L32:
 360 000e 00BF     		.align	2
 361              	.L31:
 362 0010 00200052 		.word	1375739904
 363              		.cfi_endproc
 364              	.LFE155:
 366              		.section	.text.FLASH_OB_GetRDP,"ax",%progbits
 367              		.align	1
 368              		.syntax unified
 369              		.thumb
 370              		.thumb_func
 371              		.fpu fpv5-d16
 373              	FLASH_OB_GetRDP:
 374              	.LFB156:
1029:Drivers/STM32H7xx_HAL_Driver/Src/stm32h7xx_hal_flash_ex.c **** 
1030:Drivers/STM32H7xx_HAL_Driver/Src/stm32h7xx_hal_flash_ex.c **** /**
1031:Drivers/STM32H7xx_HAL_Driver/Src/stm32h7xx_hal_flash_ex.c ****   * @brief  Get the read protection level.
1032:Drivers/STM32H7xx_HAL_Driver/Src/stm32h7xx_hal_flash_ex.c ****   * @retval RDPLevel specifies the read protection level.
1033:Drivers/STM32H7xx_HAL_Driver/Src/stm32h7xx_hal_flash_ex.c ****   *         This return value can be one of the following values:
1034:Drivers/STM32H7xx_HAL_Driver/Src/stm32h7xx_hal_flash_ex.c ****   *            @arg OB_RDP_LEVEL_0: No protection
1035:Drivers/STM32H7xx_HAL_Driver/Src/stm32h7xx_hal_flash_ex.c ****   *            @arg OB_RDP_LEVEL_1: Read protection of the memory
1036:Drivers/STM32H7xx_HAL_Driver/Src/stm32h7xx_hal_flash_ex.c ****   *            @arg OB_RDP_LEVEL_2: Full chip protection
1037:Drivers/STM32H7xx_HAL_Driver/Src/stm32h7xx_hal_flash_ex.c ****   */
1038:Drivers/STM32H7xx_HAL_Driver/Src/stm32h7xx_hal_flash_ex.c **** static uint32_t FLASH_OB_GetRDP(void)
1039:Drivers/STM32H7xx_HAL_Driver/Src/stm32h7xx_hal_flash_ex.c **** {
 375              		.loc 1 1039 1 is_stmt 1 view -0
 376              		.cfi_startproc
 377              		@ args = 0, pretend = 0, frame = 0
 378              		@ frame_needed = 0, uses_anonymous_args = 0
ARM GAS  C:\Users\chesn\AppData\Local\Temp\ccAfRyoq.s 			page 26


 379              		@ link register save eliminated.
1040:Drivers/STM32H7xx_HAL_Driver/Src/stm32h7xx_hal_flash_ex.c ****   uint32_t rdp_level = READ_BIT(FLASH->OPTSR_CUR, FLASH_OPTSR_RDP);
 380              		.loc 1 1040 3 view .LVU100
 381              		.loc 1 1040 24 is_stmt 0 view .LVU101
 382 0000 064B     		ldr	r3, .L36
 383 0002 D869     		ldr	r0, [r3, #28]
 384              		.loc 1 1040 12 view .LVU102
 385 0004 00F47F40 		and	r0, r0, #65280
 386              	.LVL19:
1041:Drivers/STM32H7xx_HAL_Driver/Src/stm32h7xx_hal_flash_ex.c ****   
1042:Drivers/STM32H7xx_HAL_Driver/Src/stm32h7xx_hal_flash_ex.c ****   if ((rdp_level != OB_RDP_LEVEL_0) && (rdp_level != OB_RDP_LEVEL_2))
 387              		.loc 1 1042 3 is_stmt 1 view .LVU103
 388              		.loc 1 1042 6 is_stmt 0 view .LVU104
 389 0008 B0F52A4F 		cmp	r0, #43520
 390 000c 18BF     		it	ne
 391 000e B0F54C4F 		cmpne	r0, #52224
 392 0012 00D1     		bne	.L35
 393              	.LVL20:
 394              	.L33:
1043:Drivers/STM32H7xx_HAL_Driver/Src/stm32h7xx_hal_flash_ex.c ****   {
1044:Drivers/STM32H7xx_HAL_Driver/Src/stm32h7xx_hal_flash_ex.c ****     return (OB_RDP_LEVEL_1);
1045:Drivers/STM32H7xx_HAL_Driver/Src/stm32h7xx_hal_flash_ex.c ****   }
1046:Drivers/STM32H7xx_HAL_Driver/Src/stm32h7xx_hal_flash_ex.c ****   else
1047:Drivers/STM32H7xx_HAL_Driver/Src/stm32h7xx_hal_flash_ex.c ****   {
1048:Drivers/STM32H7xx_HAL_Driver/Src/stm32h7xx_hal_flash_ex.c ****     return rdp_level;
1049:Drivers/STM32H7xx_HAL_Driver/Src/stm32h7xx_hal_flash_ex.c ****   }
1050:Drivers/STM32H7xx_HAL_Driver/Src/stm32h7xx_hal_flash_ex.c **** }
 395              		.loc 1 1050 1 view .LVU105
 396 0014 7047     		bx	lr
 397              	.LVL21:
 398              	.L35:
1044:Drivers/STM32H7xx_HAL_Driver/Src/stm32h7xx_hal_flash_ex.c ****   }
 399              		.loc 1 1044 12 view .LVU106
 400 0016 4FF4AA40 		mov	r0, #21760
 401              	.LVL22:
1044:Drivers/STM32H7xx_HAL_Driver/Src/stm32h7xx_hal_flash_ex.c ****   }
 402              		.loc 1 1044 12 view .LVU107
 403 001a FBE7     		b	.L33
 404              	.L37:
 405              		.align	2
 406              	.L36:
 407 001c 00200052 		.word	1375739904
 408              		.cfi_endproc
 409              	.LFE156:
 411              		.section	.text.FLASH_OB_UserConfig,"ax",%progbits
 412              		.align	1
 413              		.syntax unified
 414              		.thumb
 415              		.thumb_func
 416              		.fpu fpv5-d16
 418              	FLASH_OB_UserConfig:
 419              	.LVL23:
 420              	.LFB157:
1051:Drivers/STM32H7xx_HAL_Driver/Src/stm32h7xx_hal_flash_ex.c **** 
1052:Drivers/STM32H7xx_HAL_Driver/Src/stm32h7xx_hal_flash_ex.c **** #if defined(DUAL_CORE)
1053:Drivers/STM32H7xx_HAL_Driver/Src/stm32h7xx_hal_flash_ex.c **** /**
1054:Drivers/STM32H7xx_HAL_Driver/Src/stm32h7xx_hal_flash_ex.c ****   * @brief  Program the FLASH User Option Byte.
ARM GAS  C:\Users\chesn\AppData\Local\Temp\ccAfRyoq.s 			page 27


1055:Drivers/STM32H7xx_HAL_Driver/Src/stm32h7xx_hal_flash_ex.c ****   *
1056:Drivers/STM32H7xx_HAL_Driver/Src/stm32h7xx_hal_flash_ex.c ****   * @note   To configure the user option bytes, the option lock bit OPTLOCK must
1057:Drivers/STM32H7xx_HAL_Driver/Src/stm32h7xx_hal_flash_ex.c ****   *         be cleared with the call of the HAL_FLASH_OB_Unlock() function.
1058:Drivers/STM32H7xx_HAL_Driver/Src/stm32h7xx_hal_flash_ex.c ****   *
1059:Drivers/STM32H7xx_HAL_Driver/Src/stm32h7xx_hal_flash_ex.c ****   * @note   To validate the user option bytes, the option bytes must be reloaded
1060:Drivers/STM32H7xx_HAL_Driver/Src/stm32h7xx_hal_flash_ex.c ****   *         through the call of the HAL_FLASH_OB_Launch() function.
1061:Drivers/STM32H7xx_HAL_Driver/Src/stm32h7xx_hal_flash_ex.c ****   *
1062:Drivers/STM32H7xx_HAL_Driver/Src/stm32h7xx_hal_flash_ex.c ****   * @param  UserType The FLASH User Option Bytes to be modified :
1063:Drivers/STM32H7xx_HAL_Driver/Src/stm32h7xx_hal_flash_ex.c ****   *                   a combination of @ref FLASHEx_OB_USER_Type
1064:Drivers/STM32H7xx_HAL_Driver/Src/stm32h7xx_hal_flash_ex.c ****   *
1065:Drivers/STM32H7xx_HAL_Driver/Src/stm32h7xx_hal_flash_ex.c ****   * @param  UserConfig The FLASH User Option Bytes values:
1066:Drivers/STM32H7xx_HAL_Driver/Src/stm32h7xx_hal_flash_ex.c ****   *         IWDG1_SW(Bit4), IWDG2_SW(Bit 5), nRST_STOP_D1(Bit 6), nRST_STDY_D1(Bit 7),
1067:Drivers/STM32H7xx_HAL_Driver/Src/stm32h7xx_hal_flash_ex.c ****   *         FZ_IWDG_STOP(Bit 17), FZ_IWDG_SDBY(Bit 18), ST_RAM_SIZE(Bit[19:20]),
1068:Drivers/STM32H7xx_HAL_Driver/Src/stm32h7xx_hal_flash_ex.c ****   *         SECURITY(Bit 21), BCM4(Bit 22), BCM7(Bit 23), nRST_STOP_D2(Bit 24),
1069:Drivers/STM32H7xx_HAL_Driver/Src/stm32h7xx_hal_flash_ex.c ****   *         nRST_STDY_D2(Bit 25), IO_HSLV (Bit 29) and SWAP_BANK_OPT(Bit 31).
1070:Drivers/STM32H7xx_HAL_Driver/Src/stm32h7xx_hal_flash_ex.c ****   *
1071:Drivers/STM32H7xx_HAL_Driver/Src/stm32h7xx_hal_flash_ex.c ****   * @retval HAL status
1072:Drivers/STM32H7xx_HAL_Driver/Src/stm32h7xx_hal_flash_ex.c ****   */
1073:Drivers/STM32H7xx_HAL_Driver/Src/stm32h7xx_hal_flash_ex.c **** #else
1074:Drivers/STM32H7xx_HAL_Driver/Src/stm32h7xx_hal_flash_ex.c **** /**
1075:Drivers/STM32H7xx_HAL_Driver/Src/stm32h7xx_hal_flash_ex.c ****   * @brief  Program the FLASH User Option Byte.
1076:Drivers/STM32H7xx_HAL_Driver/Src/stm32h7xx_hal_flash_ex.c ****   *
1077:Drivers/STM32H7xx_HAL_Driver/Src/stm32h7xx_hal_flash_ex.c ****   * @note   To configure the user option bytes, the option lock bit OPTLOCK must
1078:Drivers/STM32H7xx_HAL_Driver/Src/stm32h7xx_hal_flash_ex.c ****   *         be cleared with the call of the HAL_FLASH_OB_Unlock() function.
1079:Drivers/STM32H7xx_HAL_Driver/Src/stm32h7xx_hal_flash_ex.c ****   *
1080:Drivers/STM32H7xx_HAL_Driver/Src/stm32h7xx_hal_flash_ex.c ****   * @note   To validate the user option bytes, the option bytes must be reloaded
1081:Drivers/STM32H7xx_HAL_Driver/Src/stm32h7xx_hal_flash_ex.c ****   *         through the call of the HAL_FLASH_OB_Launch() function.
1082:Drivers/STM32H7xx_HAL_Driver/Src/stm32h7xx_hal_flash_ex.c ****   *
1083:Drivers/STM32H7xx_HAL_Driver/Src/stm32h7xx_hal_flash_ex.c ****   * @param  UserType The FLASH User Option Bytes to be modified :
1084:Drivers/STM32H7xx_HAL_Driver/Src/stm32h7xx_hal_flash_ex.c ****   *                   a combination of @arg FLASHEx_OB_USER_Type
1085:Drivers/STM32H7xx_HAL_Driver/Src/stm32h7xx_hal_flash_ex.c ****   *
1086:Drivers/STM32H7xx_HAL_Driver/Src/stm32h7xx_hal_flash_ex.c ****   * @param  UserConfig The FLASH User Option Bytes values:
1087:Drivers/STM32H7xx_HAL_Driver/Src/stm32h7xx_hal_flash_ex.c ****   *         IWDG_SW(Bit4), nRST_STOP_D1(Bit 6), nRST_STDY_D1(Bit 7),
1088:Drivers/STM32H7xx_HAL_Driver/Src/stm32h7xx_hal_flash_ex.c ****   *         FZ_IWDG_STOP(Bit 17), FZ_IWDG_SDBY(Bit 18), ST_RAM_SIZE(Bit[19:20]),
1089:Drivers/STM32H7xx_HAL_Driver/Src/stm32h7xx_hal_flash_ex.c ****   *         SECURITY(Bit 21), IO_HSLV (Bit 29) and SWAP_BANK_OPT(Bit 31).
1090:Drivers/STM32H7xx_HAL_Driver/Src/stm32h7xx_hal_flash_ex.c ****   *
1091:Drivers/STM32H7xx_HAL_Driver/Src/stm32h7xx_hal_flash_ex.c ****   * @retval HAL status
1092:Drivers/STM32H7xx_HAL_Driver/Src/stm32h7xx_hal_flash_ex.c ****   */
1093:Drivers/STM32H7xx_HAL_Driver/Src/stm32h7xx_hal_flash_ex.c **** #endif /*DUAL_CORE*/
1094:Drivers/STM32H7xx_HAL_Driver/Src/stm32h7xx_hal_flash_ex.c **** static void FLASH_OB_UserConfig(uint32_t UserType, uint32_t UserConfig)
1095:Drivers/STM32H7xx_HAL_Driver/Src/stm32h7xx_hal_flash_ex.c **** {
 421              		.loc 1 1095 1 is_stmt 1 view -0
 422              		.cfi_startproc
 423              		@ args = 0, pretend = 0, frame = 0
 424              		@ frame_needed = 0, uses_anonymous_args = 0
 425              		@ link register save eliminated.
 426              		.loc 1 1095 1 is_stmt 0 view .LVU109
 427 0000 10B4     		push	{r4}
 428              	.LCFI4:
 429              		.cfi_def_cfa_offset 4
 430              		.cfi_offset 4, -4
1096:Drivers/STM32H7xx_HAL_Driver/Src/stm32h7xx_hal_flash_ex.c ****   uint32_t optr_reg_val = 0;
 431              		.loc 1 1096 3 is_stmt 1 view .LVU110
 432              	.LVL24:
1097:Drivers/STM32H7xx_HAL_Driver/Src/stm32h7xx_hal_flash_ex.c ****   uint32_t optr_reg_mask = 0;
 433              		.loc 1 1097 3 view .LVU111
1098:Drivers/STM32H7xx_HAL_Driver/Src/stm32h7xx_hal_flash_ex.c **** 
ARM GAS  C:\Users\chesn\AppData\Local\Temp\ccAfRyoq.s 			page 28


1099:Drivers/STM32H7xx_HAL_Driver/Src/stm32h7xx_hal_flash_ex.c ****   /* Check the parameters */
1100:Drivers/STM32H7xx_HAL_Driver/Src/stm32h7xx_hal_flash_ex.c ****   assert_param(IS_OB_USER_TYPE(UserType));
 434              		.loc 1 1100 3 view .LVU112
1101:Drivers/STM32H7xx_HAL_Driver/Src/stm32h7xx_hal_flash_ex.c **** 
1102:Drivers/STM32H7xx_HAL_Driver/Src/stm32h7xx_hal_flash_ex.c ****   if((UserType & OB_USER_IWDG1_SW) != 0U)
 435              		.loc 1 1102 3 view .LVU113
 436              		.loc 1 1102 5 is_stmt 0 view .LVU114
 437 0002 10F00103 		ands	r3, r0, #1
 438 0006 4BD0     		beq	.L48
1103:Drivers/STM32H7xx_HAL_Driver/Src/stm32h7xx_hal_flash_ex.c ****   {
1104:Drivers/STM32H7xx_HAL_Driver/Src/stm32h7xx_hal_flash_ex.c ****     /* IWDG_HW option byte should be modified */
1105:Drivers/STM32H7xx_HAL_Driver/Src/stm32h7xx_hal_flash_ex.c ****     assert_param(IS_OB_IWDG1_SOURCE(UserConfig & FLASH_OPTSR_IWDG1_SW));
 439              		.loc 1 1105 5 is_stmt 1 view .LVU115
1106:Drivers/STM32H7xx_HAL_Driver/Src/stm32h7xx_hal_flash_ex.c **** 
1107:Drivers/STM32H7xx_HAL_Driver/Src/stm32h7xx_hal_flash_ex.c ****     /* Set value and mask for IWDG_HW option byte */
1108:Drivers/STM32H7xx_HAL_Driver/Src/stm32h7xx_hal_flash_ex.c ****     optr_reg_val |= (UserConfig & FLASH_OPTSR_IWDG1_SW);
 440              		.loc 1 1108 5 view .LVU116
 441              		.loc 1 1108 33 is_stmt 0 view .LVU117
 442 0008 01F01003 		and	r3, r1, #16
 443              	.LVL25:
1109:Drivers/STM32H7xx_HAL_Driver/Src/stm32h7xx_hal_flash_ex.c ****     optr_reg_mask |= FLASH_OPTSR_IWDG1_SW;
 444              		.loc 1 1109 5 is_stmt 1 view .LVU118
 445              		.loc 1 1109 19 is_stmt 0 view .LVU119
 446 000c 1022     		movs	r2, #16
 447              	.LVL26:
 448              	.L39:
1110:Drivers/STM32H7xx_HAL_Driver/Src/stm32h7xx_hal_flash_ex.c ****   }
1111:Drivers/STM32H7xx_HAL_Driver/Src/stm32h7xx_hal_flash_ex.c **** #if defined(DUAL_CORE)
1112:Drivers/STM32H7xx_HAL_Driver/Src/stm32h7xx_hal_flash_ex.c ****   if((UserType & OB_USER_IWDG2_SW) != 0U)
1113:Drivers/STM32H7xx_HAL_Driver/Src/stm32h7xx_hal_flash_ex.c ****   {
1114:Drivers/STM32H7xx_HAL_Driver/Src/stm32h7xx_hal_flash_ex.c ****     /* IWDG2_SW option byte should be modified */
1115:Drivers/STM32H7xx_HAL_Driver/Src/stm32h7xx_hal_flash_ex.c ****     assert_param(IS_OB_IWDG2_SOURCE(UserConfig & FLASH_OPTSR_IWDG2_SW));
1116:Drivers/STM32H7xx_HAL_Driver/Src/stm32h7xx_hal_flash_ex.c **** 
1117:Drivers/STM32H7xx_HAL_Driver/Src/stm32h7xx_hal_flash_ex.c ****     /* Set value and mask for IWDG2_SW option byte */
1118:Drivers/STM32H7xx_HAL_Driver/Src/stm32h7xx_hal_flash_ex.c ****     optr_reg_val |= (UserConfig & FLASH_OPTSR_IWDG2_SW);
1119:Drivers/STM32H7xx_HAL_Driver/Src/stm32h7xx_hal_flash_ex.c ****     optr_reg_mask |= FLASH_OPTSR_IWDG2_SW;
1120:Drivers/STM32H7xx_HAL_Driver/Src/stm32h7xx_hal_flash_ex.c ****   }
1121:Drivers/STM32H7xx_HAL_Driver/Src/stm32h7xx_hal_flash_ex.c **** #endif /*DUAL_CORE*/
1122:Drivers/STM32H7xx_HAL_Driver/Src/stm32h7xx_hal_flash_ex.c ****   if((UserType & OB_USER_NRST_STOP_D1) != 0U)
 449              		.loc 1 1122 3 is_stmt 1 view .LVU120
 450              		.loc 1 1122 5 is_stmt 0 view .LVU121
 451 000e 10F0020F 		tst	r0, #2
 452 0012 04D0     		beq	.L40
1123:Drivers/STM32H7xx_HAL_Driver/Src/stm32h7xx_hal_flash_ex.c ****   {
1124:Drivers/STM32H7xx_HAL_Driver/Src/stm32h7xx_hal_flash_ex.c ****     /* NRST_STOP option byte should be modified */
1125:Drivers/STM32H7xx_HAL_Driver/Src/stm32h7xx_hal_flash_ex.c ****     assert_param(IS_OB_STOP_D1_RESET(UserConfig & FLASH_OPTSR_NRST_STOP_D1));
 453              		.loc 1 1125 5 is_stmt 1 view .LVU122
1126:Drivers/STM32H7xx_HAL_Driver/Src/stm32h7xx_hal_flash_ex.c **** 
1127:Drivers/STM32H7xx_HAL_Driver/Src/stm32h7xx_hal_flash_ex.c ****     /* Set value and mask for NRST_STOP option byte */
1128:Drivers/STM32H7xx_HAL_Driver/Src/stm32h7xx_hal_flash_ex.c ****     optr_reg_val |= (UserConfig & FLASH_OPTSR_NRST_STOP_D1);
 454              		.loc 1 1128 5 view .LVU123
 455              		.loc 1 1128 33 is_stmt 0 view .LVU124
 456 0014 01F04004 		and	r4, r1, #64
 457              		.loc 1 1128 18 view .LVU125
 458 0018 2343     		orrs	r3, r3, r4
 459              	.LVL27:
1129:Drivers/STM32H7xx_HAL_Driver/Src/stm32h7xx_hal_flash_ex.c ****     optr_reg_mask |= FLASH_OPTSR_NRST_STOP_D1;
ARM GAS  C:\Users\chesn\AppData\Local\Temp\ccAfRyoq.s 			page 29


 460              		.loc 1 1129 5 is_stmt 1 view .LVU126
 461              		.loc 1 1129 19 is_stmt 0 view .LVU127
 462 001a 42F04002 		orr	r2, r2, #64
 463              	.LVL28:
 464              	.L40:
1130:Drivers/STM32H7xx_HAL_Driver/Src/stm32h7xx_hal_flash_ex.c ****   }
1131:Drivers/STM32H7xx_HAL_Driver/Src/stm32h7xx_hal_flash_ex.c **** 
1132:Drivers/STM32H7xx_HAL_Driver/Src/stm32h7xx_hal_flash_ex.c ****   if((UserType & OB_USER_NRST_STDBY_D1) != 0U)
 465              		.loc 1 1132 3 is_stmt 1 view .LVU128
 466              		.loc 1 1132 5 is_stmt 0 view .LVU129
 467 001e 10F0040F 		tst	r0, #4
 468 0022 04D0     		beq	.L41
1133:Drivers/STM32H7xx_HAL_Driver/Src/stm32h7xx_hal_flash_ex.c ****   {
1134:Drivers/STM32H7xx_HAL_Driver/Src/stm32h7xx_hal_flash_ex.c ****     /* NRST_STDBY option byte should be modified */
1135:Drivers/STM32H7xx_HAL_Driver/Src/stm32h7xx_hal_flash_ex.c ****     assert_param(IS_OB_STDBY_D1_RESET(UserConfig & FLASH_OPTSR_NRST_STBY_D1));
 469              		.loc 1 1135 5 is_stmt 1 view .LVU130
1136:Drivers/STM32H7xx_HAL_Driver/Src/stm32h7xx_hal_flash_ex.c **** 
1137:Drivers/STM32H7xx_HAL_Driver/Src/stm32h7xx_hal_flash_ex.c ****     /* Set value and mask for NRST_STDBY option byte */
1138:Drivers/STM32H7xx_HAL_Driver/Src/stm32h7xx_hal_flash_ex.c ****     optr_reg_val |= (UserConfig & FLASH_OPTSR_NRST_STBY_D1);
 470              		.loc 1 1138 5 view .LVU131
 471              		.loc 1 1138 33 is_stmt 0 view .LVU132
 472 0024 01F08004 		and	r4, r1, #128
 473              		.loc 1 1138 18 view .LVU133
 474 0028 2343     		orrs	r3, r3, r4
 475              	.LVL29:
1139:Drivers/STM32H7xx_HAL_Driver/Src/stm32h7xx_hal_flash_ex.c ****     optr_reg_mask |= FLASH_OPTSR_NRST_STBY_D1;
 476              		.loc 1 1139 5 is_stmt 1 view .LVU134
 477              		.loc 1 1139 19 is_stmt 0 view .LVU135
 478 002a 42F08002 		orr	r2, r2, #128
 479              	.LVL30:
 480              	.L41:
1140:Drivers/STM32H7xx_HAL_Driver/Src/stm32h7xx_hal_flash_ex.c ****   }
1141:Drivers/STM32H7xx_HAL_Driver/Src/stm32h7xx_hal_flash_ex.c **** 
1142:Drivers/STM32H7xx_HAL_Driver/Src/stm32h7xx_hal_flash_ex.c ****   if((UserType & OB_USER_IWDG_STOP) != 0U)
 481              		.loc 1 1142 3 is_stmt 1 view .LVU136
 482              		.loc 1 1142 5 is_stmt 0 view .LVU137
 483 002e 10F0080F 		tst	r0, #8
 484 0032 04D0     		beq	.L42
1143:Drivers/STM32H7xx_HAL_Driver/Src/stm32h7xx_hal_flash_ex.c ****   {
1144:Drivers/STM32H7xx_HAL_Driver/Src/stm32h7xx_hal_flash_ex.c ****     /* IWDG_STOP option byte should be modified */
1145:Drivers/STM32H7xx_HAL_Driver/Src/stm32h7xx_hal_flash_ex.c ****     assert_param(IS_OB_USER_IWDG_STOP(UserConfig & FLASH_OPTSR_FZ_IWDG_STOP));
 485              		.loc 1 1145 5 is_stmt 1 view .LVU138
1146:Drivers/STM32H7xx_HAL_Driver/Src/stm32h7xx_hal_flash_ex.c **** 
1147:Drivers/STM32H7xx_HAL_Driver/Src/stm32h7xx_hal_flash_ex.c ****     /* Set value and mask for IWDG_STOP option byte */
1148:Drivers/STM32H7xx_HAL_Driver/Src/stm32h7xx_hal_flash_ex.c ****     optr_reg_val |= (UserConfig & FLASH_OPTSR_FZ_IWDG_STOP);
 486              		.loc 1 1148 5 view .LVU139
 487              		.loc 1 1148 33 is_stmt 0 view .LVU140
 488 0034 01F40034 		and	r4, r1, #131072
 489              		.loc 1 1148 18 view .LVU141
 490 0038 2343     		orrs	r3, r3, r4
 491              	.LVL31:
1149:Drivers/STM32H7xx_HAL_Driver/Src/stm32h7xx_hal_flash_ex.c ****     optr_reg_mask |= FLASH_OPTSR_FZ_IWDG_STOP;
 492              		.loc 1 1149 5 is_stmt 1 view .LVU142
 493              		.loc 1 1149 19 is_stmt 0 view .LVU143
 494 003a 42F40032 		orr	r2, r2, #131072
 495              	.LVL32:
 496              	.L42:
ARM GAS  C:\Users\chesn\AppData\Local\Temp\ccAfRyoq.s 			page 30


1150:Drivers/STM32H7xx_HAL_Driver/Src/stm32h7xx_hal_flash_ex.c ****   }
1151:Drivers/STM32H7xx_HAL_Driver/Src/stm32h7xx_hal_flash_ex.c **** 
1152:Drivers/STM32H7xx_HAL_Driver/Src/stm32h7xx_hal_flash_ex.c ****   if((UserType & OB_USER_IWDG_STDBY) != 0U)
 497              		.loc 1 1152 3 is_stmt 1 view .LVU144
 498              		.loc 1 1152 5 is_stmt 0 view .LVU145
 499 003e 10F0100F 		tst	r0, #16
 500 0042 04D0     		beq	.L43
1153:Drivers/STM32H7xx_HAL_Driver/Src/stm32h7xx_hal_flash_ex.c ****   {
1154:Drivers/STM32H7xx_HAL_Driver/Src/stm32h7xx_hal_flash_ex.c ****     /* IWDG_STDBY option byte should be modified */
1155:Drivers/STM32H7xx_HAL_Driver/Src/stm32h7xx_hal_flash_ex.c ****     assert_param(IS_OB_USER_IWDG_STDBY(UserConfig & FLASH_OPTSR_FZ_IWDG_SDBY));
 501              		.loc 1 1155 5 is_stmt 1 view .LVU146
1156:Drivers/STM32H7xx_HAL_Driver/Src/stm32h7xx_hal_flash_ex.c **** 
1157:Drivers/STM32H7xx_HAL_Driver/Src/stm32h7xx_hal_flash_ex.c ****     /* Set value and mask for IWDG_STDBY option byte */
1158:Drivers/STM32H7xx_HAL_Driver/Src/stm32h7xx_hal_flash_ex.c ****     optr_reg_val |= (UserConfig & FLASH_OPTSR_FZ_IWDG_SDBY);
 502              		.loc 1 1158 5 view .LVU147
 503              		.loc 1 1158 33 is_stmt 0 view .LVU148
 504 0044 01F48024 		and	r4, r1, #262144
 505              		.loc 1 1158 18 view .LVU149
 506 0048 2343     		orrs	r3, r3, r4
 507              	.LVL33:
1159:Drivers/STM32H7xx_HAL_Driver/Src/stm32h7xx_hal_flash_ex.c ****     optr_reg_mask |= FLASH_OPTSR_FZ_IWDG_SDBY;
 508              		.loc 1 1159 5 is_stmt 1 view .LVU150
 509              		.loc 1 1159 19 is_stmt 0 view .LVU151
 510 004a 42F48022 		orr	r2, r2, #262144
 511              	.LVL34:
 512              	.L43:
1160:Drivers/STM32H7xx_HAL_Driver/Src/stm32h7xx_hal_flash_ex.c ****   }
1161:Drivers/STM32H7xx_HAL_Driver/Src/stm32h7xx_hal_flash_ex.c **** 
1162:Drivers/STM32H7xx_HAL_Driver/Src/stm32h7xx_hal_flash_ex.c ****   if((UserType & OB_USER_ST_RAM_SIZE) != 0U)
 513              		.loc 1 1162 3 is_stmt 1 view .LVU152
 514              		.loc 1 1162 5 is_stmt 0 view .LVU153
 515 004e 10F0200F 		tst	r0, #32
 516 0052 04D0     		beq	.L44
1163:Drivers/STM32H7xx_HAL_Driver/Src/stm32h7xx_hal_flash_ex.c ****   {
1164:Drivers/STM32H7xx_HAL_Driver/Src/stm32h7xx_hal_flash_ex.c ****     /* ST_RAM_SIZE option byte should be modified */
1165:Drivers/STM32H7xx_HAL_Driver/Src/stm32h7xx_hal_flash_ex.c ****     assert_param(IS_OB_USER_ST_RAM_SIZE(UserConfig & FLASH_OPTSR_ST_RAM_SIZE));
 517              		.loc 1 1165 5 is_stmt 1 view .LVU154
1166:Drivers/STM32H7xx_HAL_Driver/Src/stm32h7xx_hal_flash_ex.c **** 
1167:Drivers/STM32H7xx_HAL_Driver/Src/stm32h7xx_hal_flash_ex.c ****     /* Set value and mask for ST_RAM_SIZE option byte */
1168:Drivers/STM32H7xx_HAL_Driver/Src/stm32h7xx_hal_flash_ex.c ****     optr_reg_val |= (UserConfig & FLASH_OPTSR_ST_RAM_SIZE);
 518              		.loc 1 1168 5 view .LVU155
 519              		.loc 1 1168 33 is_stmt 0 view .LVU156
 520 0054 01F4C014 		and	r4, r1, #1572864
 521              		.loc 1 1168 18 view .LVU157
 522 0058 2343     		orrs	r3, r3, r4
 523              	.LVL35:
1169:Drivers/STM32H7xx_HAL_Driver/Src/stm32h7xx_hal_flash_ex.c ****     optr_reg_mask |= FLASH_OPTSR_ST_RAM_SIZE;
 524              		.loc 1 1169 5 is_stmt 1 view .LVU158
 525              		.loc 1 1169 19 is_stmt 0 view .LVU159
 526 005a 42F4C012 		orr	r2, r2, #1572864
 527              	.LVL36:
 528              	.L44:
1170:Drivers/STM32H7xx_HAL_Driver/Src/stm32h7xx_hal_flash_ex.c ****   }
1171:Drivers/STM32H7xx_HAL_Driver/Src/stm32h7xx_hal_flash_ex.c **** 
1172:Drivers/STM32H7xx_HAL_Driver/Src/stm32h7xx_hal_flash_ex.c ****   if((UserType & OB_USER_SECURITY) != 0U)
 529              		.loc 1 1172 3 is_stmt 1 view .LVU160
 530              		.loc 1 1172 5 is_stmt 0 view .LVU161
ARM GAS  C:\Users\chesn\AppData\Local\Temp\ccAfRyoq.s 			page 31


 531 005e 10F0400F 		tst	r0, #64
 532 0062 04D0     		beq	.L45
1173:Drivers/STM32H7xx_HAL_Driver/Src/stm32h7xx_hal_flash_ex.c ****   {
1174:Drivers/STM32H7xx_HAL_Driver/Src/stm32h7xx_hal_flash_ex.c ****     /* SECURITY option byte should be modified */
1175:Drivers/STM32H7xx_HAL_Driver/Src/stm32h7xx_hal_flash_ex.c ****     assert_param(IS_OB_USER_SECURITY(UserConfig & FLASH_OPTSR_SECURITY));
 533              		.loc 1 1175 5 is_stmt 1 view .LVU162
1176:Drivers/STM32H7xx_HAL_Driver/Src/stm32h7xx_hal_flash_ex.c **** 
1177:Drivers/STM32H7xx_HAL_Driver/Src/stm32h7xx_hal_flash_ex.c ****     /* Set value and mask for SECURITY option byte */
1178:Drivers/STM32H7xx_HAL_Driver/Src/stm32h7xx_hal_flash_ex.c ****     optr_reg_val |= (UserConfig & FLASH_OPTSR_SECURITY);
 534              		.loc 1 1178 5 view .LVU163
 535              		.loc 1 1178 33 is_stmt 0 view .LVU164
 536 0064 01F40014 		and	r4, r1, #2097152
 537              		.loc 1 1178 18 view .LVU165
 538 0068 2343     		orrs	r3, r3, r4
 539              	.LVL37:
1179:Drivers/STM32H7xx_HAL_Driver/Src/stm32h7xx_hal_flash_ex.c ****     optr_reg_mask |= FLASH_OPTSR_SECURITY;
 540              		.loc 1 1179 5 is_stmt 1 view .LVU166
 541              		.loc 1 1179 19 is_stmt 0 view .LVU167
 542 006a 42F40012 		orr	r2, r2, #2097152
 543              	.LVL38:
 544              	.L45:
1180:Drivers/STM32H7xx_HAL_Driver/Src/stm32h7xx_hal_flash_ex.c ****   }
1181:Drivers/STM32H7xx_HAL_Driver/Src/stm32h7xx_hal_flash_ex.c **** 
1182:Drivers/STM32H7xx_HAL_Driver/Src/stm32h7xx_hal_flash_ex.c **** #if defined(DUAL_CORE)
1183:Drivers/STM32H7xx_HAL_Driver/Src/stm32h7xx_hal_flash_ex.c ****   if((UserType & OB_USER_BCM4) != 0U)
1184:Drivers/STM32H7xx_HAL_Driver/Src/stm32h7xx_hal_flash_ex.c ****   {
1185:Drivers/STM32H7xx_HAL_Driver/Src/stm32h7xx_hal_flash_ex.c ****     /* BCM4 option byte should be modified */
1186:Drivers/STM32H7xx_HAL_Driver/Src/stm32h7xx_hal_flash_ex.c ****     assert_param(IS_OB_USER_BCM4(UserConfig & FLASH_OPTSR_BCM4));
1187:Drivers/STM32H7xx_HAL_Driver/Src/stm32h7xx_hal_flash_ex.c **** 
1188:Drivers/STM32H7xx_HAL_Driver/Src/stm32h7xx_hal_flash_ex.c ****     /* Set value and mask for BCM4 option byte */
1189:Drivers/STM32H7xx_HAL_Driver/Src/stm32h7xx_hal_flash_ex.c ****     optr_reg_val |= (UserConfig & FLASH_OPTSR_BCM4);
1190:Drivers/STM32H7xx_HAL_Driver/Src/stm32h7xx_hal_flash_ex.c ****     optr_reg_mask |= FLASH_OPTSR_BCM4;
1191:Drivers/STM32H7xx_HAL_Driver/Src/stm32h7xx_hal_flash_ex.c ****   }
1192:Drivers/STM32H7xx_HAL_Driver/Src/stm32h7xx_hal_flash_ex.c **** 
1193:Drivers/STM32H7xx_HAL_Driver/Src/stm32h7xx_hal_flash_ex.c ****   if((UserType & OB_USER_BCM7) != 0U)
1194:Drivers/STM32H7xx_HAL_Driver/Src/stm32h7xx_hal_flash_ex.c ****   {
1195:Drivers/STM32H7xx_HAL_Driver/Src/stm32h7xx_hal_flash_ex.c ****     /* BCM7 option byte should be modified */
1196:Drivers/STM32H7xx_HAL_Driver/Src/stm32h7xx_hal_flash_ex.c ****     assert_param(IS_OB_USER_BCM7(UserConfig & FLASH_OPTSR_BCM7));
1197:Drivers/STM32H7xx_HAL_Driver/Src/stm32h7xx_hal_flash_ex.c **** 
1198:Drivers/STM32H7xx_HAL_Driver/Src/stm32h7xx_hal_flash_ex.c ****     /* Set value and mask for BCM7 option byte */
1199:Drivers/STM32H7xx_HAL_Driver/Src/stm32h7xx_hal_flash_ex.c ****     optr_reg_val |= (UserConfig & FLASH_OPTSR_BCM7);
1200:Drivers/STM32H7xx_HAL_Driver/Src/stm32h7xx_hal_flash_ex.c ****     optr_reg_mask |= FLASH_OPTSR_BCM7;
1201:Drivers/STM32H7xx_HAL_Driver/Src/stm32h7xx_hal_flash_ex.c ****   }
1202:Drivers/STM32H7xx_HAL_Driver/Src/stm32h7xx_hal_flash_ex.c **** 
1203:Drivers/STM32H7xx_HAL_Driver/Src/stm32h7xx_hal_flash_ex.c ****   if((UserType & OB_USER_NRST_STOP_D2) != 0U)
1204:Drivers/STM32H7xx_HAL_Driver/Src/stm32h7xx_hal_flash_ex.c ****   {
1205:Drivers/STM32H7xx_HAL_Driver/Src/stm32h7xx_hal_flash_ex.c ****     /* NRST_STOP option byte should be modified */
1206:Drivers/STM32H7xx_HAL_Driver/Src/stm32h7xx_hal_flash_ex.c ****     assert_param(IS_OB_STOP_D2_RESET(UserConfig & FLASH_OPTSR_NRST_STOP_D2));
1207:Drivers/STM32H7xx_HAL_Driver/Src/stm32h7xx_hal_flash_ex.c **** 
1208:Drivers/STM32H7xx_HAL_Driver/Src/stm32h7xx_hal_flash_ex.c ****     /* Set value and mask for NRST_STOP option byte */
1209:Drivers/STM32H7xx_HAL_Driver/Src/stm32h7xx_hal_flash_ex.c ****     optr_reg_val |= (UserConfig & FLASH_OPTSR_NRST_STOP_D2);
1210:Drivers/STM32H7xx_HAL_Driver/Src/stm32h7xx_hal_flash_ex.c ****     optr_reg_mask |= FLASH_OPTSR_NRST_STOP_D2;
1211:Drivers/STM32H7xx_HAL_Driver/Src/stm32h7xx_hal_flash_ex.c ****   }
1212:Drivers/STM32H7xx_HAL_Driver/Src/stm32h7xx_hal_flash_ex.c **** 
1213:Drivers/STM32H7xx_HAL_Driver/Src/stm32h7xx_hal_flash_ex.c ****   if((UserType & OB_USER_NRST_STDBY_D2) != 0U)
1214:Drivers/STM32H7xx_HAL_Driver/Src/stm32h7xx_hal_flash_ex.c ****   {
1215:Drivers/STM32H7xx_HAL_Driver/Src/stm32h7xx_hal_flash_ex.c ****     /* NRST_STDBY option byte should be modified */
ARM GAS  C:\Users\chesn\AppData\Local\Temp\ccAfRyoq.s 			page 32


1216:Drivers/STM32H7xx_HAL_Driver/Src/stm32h7xx_hal_flash_ex.c ****     assert_param(IS_OB_STDBY_D2_RESET(UserConfig & FLASH_OPTSR_NRST_STBY_D2));
1217:Drivers/STM32H7xx_HAL_Driver/Src/stm32h7xx_hal_flash_ex.c **** 
1218:Drivers/STM32H7xx_HAL_Driver/Src/stm32h7xx_hal_flash_ex.c ****     /* Set value and mask for NRST_STDBY option byte */
1219:Drivers/STM32H7xx_HAL_Driver/Src/stm32h7xx_hal_flash_ex.c ****     optr_reg_val |= (UserConfig & FLASH_OPTSR_NRST_STBY_D2);
1220:Drivers/STM32H7xx_HAL_Driver/Src/stm32h7xx_hal_flash_ex.c ****     optr_reg_mask |= FLASH_OPTSR_NRST_STBY_D2;
1221:Drivers/STM32H7xx_HAL_Driver/Src/stm32h7xx_hal_flash_ex.c ****   }
1222:Drivers/STM32H7xx_HAL_Driver/Src/stm32h7xx_hal_flash_ex.c **** #endif /* DUAL_CORE */
1223:Drivers/STM32H7xx_HAL_Driver/Src/stm32h7xx_hal_flash_ex.c ****   if((UserType & OB_USER_SWAP_BANK) != 0U)
 545              		.loc 1 1223 3 is_stmt 1 view .LVU168
 546              		.loc 1 1223 5 is_stmt 0 view .LVU169
 547 006e 10F4807F 		tst	r0, #256
 548 0072 04D0     		beq	.L46
1224:Drivers/STM32H7xx_HAL_Driver/Src/stm32h7xx_hal_flash_ex.c ****   {
1225:Drivers/STM32H7xx_HAL_Driver/Src/stm32h7xx_hal_flash_ex.c ****     /* SWAP_BANK_OPT option byte should be modified */
1226:Drivers/STM32H7xx_HAL_Driver/Src/stm32h7xx_hal_flash_ex.c ****     assert_param(IS_OB_USER_SWAP_BANK(UserConfig & FLASH_OPTSR_SWAP_BANK_OPT));
 549              		.loc 1 1226 5 is_stmt 1 view .LVU170
1227:Drivers/STM32H7xx_HAL_Driver/Src/stm32h7xx_hal_flash_ex.c **** 
1228:Drivers/STM32H7xx_HAL_Driver/Src/stm32h7xx_hal_flash_ex.c ****     /* Set value and mask for SWAP_BANK_OPT option byte */
1229:Drivers/STM32H7xx_HAL_Driver/Src/stm32h7xx_hal_flash_ex.c ****     optr_reg_val |= (UserConfig & FLASH_OPTSR_SWAP_BANK_OPT);
 550              		.loc 1 1229 5 view .LVU171
 551              		.loc 1 1229 33 is_stmt 0 view .LVU172
 552 0074 01F00044 		and	r4, r1, #-2147483648
 553              		.loc 1 1229 18 view .LVU173
 554 0078 2343     		orrs	r3, r3, r4
 555              	.LVL39:
1230:Drivers/STM32H7xx_HAL_Driver/Src/stm32h7xx_hal_flash_ex.c ****     optr_reg_mask |= FLASH_OPTSR_SWAP_BANK_OPT;
 556              		.loc 1 1230 5 is_stmt 1 view .LVU174
 557              		.loc 1 1230 19 is_stmt 0 view .LVU175
 558 007a 42F00042 		orr	r2, r2, #-2147483648
 559              	.LVL40:
 560              	.L46:
1231:Drivers/STM32H7xx_HAL_Driver/Src/stm32h7xx_hal_flash_ex.c ****   }
1232:Drivers/STM32H7xx_HAL_Driver/Src/stm32h7xx_hal_flash_ex.c **** 
1233:Drivers/STM32H7xx_HAL_Driver/Src/stm32h7xx_hal_flash_ex.c ****   if((UserType & OB_USER_IOHSLV) != 0U)
 561              		.loc 1 1233 3 is_stmt 1 view .LVU176
 562              		.loc 1 1233 5 is_stmt 0 view .LVU177
 563 007e 10F0800F 		tst	r0, #128
 564 0082 04D0     		beq	.L47
1234:Drivers/STM32H7xx_HAL_Driver/Src/stm32h7xx_hal_flash_ex.c ****   {
1235:Drivers/STM32H7xx_HAL_Driver/Src/stm32h7xx_hal_flash_ex.c ****     /* IOHSLV_OPT option byte should be modified */
1236:Drivers/STM32H7xx_HAL_Driver/Src/stm32h7xx_hal_flash_ex.c ****     assert_param(IS_OB_USER_IOHSLV(UserConfig & FLASH_OPTSR_IO_HSLV));
 565              		.loc 1 1236 5 is_stmt 1 view .LVU178
1237:Drivers/STM32H7xx_HAL_Driver/Src/stm32h7xx_hal_flash_ex.c **** 
1238:Drivers/STM32H7xx_HAL_Driver/Src/stm32h7xx_hal_flash_ex.c ****     /* Set value and mask for IOHSLV_OPT option byte */
1239:Drivers/STM32H7xx_HAL_Driver/Src/stm32h7xx_hal_flash_ex.c ****     optr_reg_val |= (UserConfig & FLASH_OPTSR_IO_HSLV);
 566              		.loc 1 1239 5 view .LVU179
 567              		.loc 1 1239 33 is_stmt 0 view .LVU180
 568 0084 01F00051 		and	r1, r1, #536870912
 569              	.LVL41:
 570              		.loc 1 1239 18 view .LVU181
 571 0088 0B43     		orrs	r3, r3, r1
 572              	.LVL42:
1240:Drivers/STM32H7xx_HAL_Driver/Src/stm32h7xx_hal_flash_ex.c ****     optr_reg_mask |= FLASH_OPTSR_IO_HSLV;
 573              		.loc 1 1240 5 is_stmt 1 view .LVU182
 574              		.loc 1 1240 19 is_stmt 0 view .LVU183
 575 008a 42F00052 		orr	r2, r2, #536870912
 576              	.LVL43:
ARM GAS  C:\Users\chesn\AppData\Local\Temp\ccAfRyoq.s 			page 33


 577              	.L47:
1241:Drivers/STM32H7xx_HAL_Driver/Src/stm32h7xx_hal_flash_ex.c ****   }
1242:Drivers/STM32H7xx_HAL_Driver/Src/stm32h7xx_hal_flash_ex.c **** 
1243:Drivers/STM32H7xx_HAL_Driver/Src/stm32h7xx_hal_flash_ex.c **** #if defined (FLASH_OPTSR_VDDMMC_HSLV)
1244:Drivers/STM32H7xx_HAL_Driver/Src/stm32h7xx_hal_flash_ex.c ****   if((UserType & OB_USER_VDDMMC_HSLV) != 0U)
1245:Drivers/STM32H7xx_HAL_Driver/Src/stm32h7xx_hal_flash_ex.c ****   {
1246:Drivers/STM32H7xx_HAL_Driver/Src/stm32h7xx_hal_flash_ex.c ****     /* VDDMMC_HSLV option byte should be modified */
1247:Drivers/STM32H7xx_HAL_Driver/Src/stm32h7xx_hal_flash_ex.c ****     assert_param(IS_OB_USER_VDDMMC_HSLV(UserConfig & FLASH_OPTSR_VDDMMC_HSLV));
1248:Drivers/STM32H7xx_HAL_Driver/Src/stm32h7xx_hal_flash_ex.c **** 
1249:Drivers/STM32H7xx_HAL_Driver/Src/stm32h7xx_hal_flash_ex.c ****     /* Set value and mask for VDDMMC_HSLV option byte */
1250:Drivers/STM32H7xx_HAL_Driver/Src/stm32h7xx_hal_flash_ex.c ****     optr_reg_val |= (UserConfig & FLASH_OPTSR_VDDMMC_HSLV);
1251:Drivers/STM32H7xx_HAL_Driver/Src/stm32h7xx_hal_flash_ex.c ****     optr_reg_mask |= FLASH_OPTSR_VDDMMC_HSLV;
1252:Drivers/STM32H7xx_HAL_Driver/Src/stm32h7xx_hal_flash_ex.c ****   }
1253:Drivers/STM32H7xx_HAL_Driver/Src/stm32h7xx_hal_flash_ex.c **** #endif /* FLASH_OPTSR_VDDMMC_HSLV */
1254:Drivers/STM32H7xx_HAL_Driver/Src/stm32h7xx_hal_flash_ex.c **** 
1255:Drivers/STM32H7xx_HAL_Driver/Src/stm32h7xx_hal_flash_ex.c ****   /* Configure the option bytes register */
1256:Drivers/STM32H7xx_HAL_Driver/Src/stm32h7xx_hal_flash_ex.c ****   MODIFY_REG(FLASH->OPTSR_PRG, optr_reg_mask, optr_reg_val);
 578              		.loc 1 1256 3 is_stmt 1 view .LVU184
 579 008e 0548     		ldr	r0, .L50
 580              	.LVL44:
 581              		.loc 1 1256 3 is_stmt 0 view .LVU185
 582 0090 016A     		ldr	r1, [r0, #32]
 583 0092 21EA0202 		bic	r2, r1, r2
 584              	.LVL45:
 585              		.loc 1 1256 3 view .LVU186
 586 0096 1343     		orrs	r3, r3, r2
 587              	.LVL46:
 588              		.loc 1 1256 3 view .LVU187
 589 0098 0362     		str	r3, [r0, #32]
1257:Drivers/STM32H7xx_HAL_Driver/Src/stm32h7xx_hal_flash_ex.c **** }
 590              		.loc 1 1257 1 view .LVU188
 591 009a 5DF8044B 		ldr	r4, [sp], #4
 592              	.LCFI5:
 593              		.cfi_remember_state
 594              		.cfi_restore 4
 595              		.cfi_def_cfa_offset 0
 596 009e 7047     		bx	lr
 597              	.LVL47:
 598              	.L48:
 599              	.LCFI6:
 600              		.cfi_restore_state
1097:Drivers/STM32H7xx_HAL_Driver/Src/stm32h7xx_hal_flash_ex.c **** 
 601              		.loc 1 1097 12 view .LVU189
 602 00a0 1A46     		mov	r2, r3
 603 00a2 B4E7     		b	.L39
 604              	.L51:
 605              		.align	2
 606              	.L50:
 607 00a4 00200052 		.word	1375739904
 608              		.cfi_endproc
 609              	.LFE157:
 611              		.section	.text.FLASH_OB_GetUser,"ax",%progbits
 612              		.align	1
 613              		.syntax unified
 614              		.thumb
 615              		.thumb_func
 616              		.fpu fpv5-d16
ARM GAS  C:\Users\chesn\AppData\Local\Temp\ccAfRyoq.s 			page 34


 618              	FLASH_OB_GetUser:
 619              	.LFB158:
1258:Drivers/STM32H7xx_HAL_Driver/Src/stm32h7xx_hal_flash_ex.c **** 
1259:Drivers/STM32H7xx_HAL_Driver/Src/stm32h7xx_hal_flash_ex.c **** #if defined(DUAL_CORE)
1260:Drivers/STM32H7xx_HAL_Driver/Src/stm32h7xx_hal_flash_ex.c **** /**
1261:Drivers/STM32H7xx_HAL_Driver/Src/stm32h7xx_hal_flash_ex.c ****   * @brief  Return the FLASH User Option Byte value.
1262:Drivers/STM32H7xx_HAL_Driver/Src/stm32h7xx_hal_flash_ex.c ****   * @retval The FLASH User Option Bytes values
1263:Drivers/STM32H7xx_HAL_Driver/Src/stm32h7xx_hal_flash_ex.c ****   *         IWDG1_SW(Bit4), IWDG2_SW(Bit 5), nRST_STOP_D1(Bit 6), nRST_STDY_D1(Bit 7),
1264:Drivers/STM32H7xx_HAL_Driver/Src/stm32h7xx_hal_flash_ex.c ****   *         FZ_IWDG_STOP(Bit 17), FZ_IWDG_SDBY(Bit 18), ST_RAM_SIZE(Bit[19:20]),
1265:Drivers/STM32H7xx_HAL_Driver/Src/stm32h7xx_hal_flash_ex.c ****   *         SECURITY(Bit 21), BCM4(Bit 22), BCM7(Bit 23), nRST_STOP_D2(Bit 24),
1266:Drivers/STM32H7xx_HAL_Driver/Src/stm32h7xx_hal_flash_ex.c ****   *         nRST_STDY_D2(Bit 25), IO_HSLV (Bit 29) and SWAP_BANK_OPT(Bit 31).
1267:Drivers/STM32H7xx_HAL_Driver/Src/stm32h7xx_hal_flash_ex.c ****   */
1268:Drivers/STM32H7xx_HAL_Driver/Src/stm32h7xx_hal_flash_ex.c **** #else
1269:Drivers/STM32H7xx_HAL_Driver/Src/stm32h7xx_hal_flash_ex.c **** /**
1270:Drivers/STM32H7xx_HAL_Driver/Src/stm32h7xx_hal_flash_ex.c ****   * @brief  Return the FLASH User Option Byte value.
1271:Drivers/STM32H7xx_HAL_Driver/Src/stm32h7xx_hal_flash_ex.c ****   * @retval The FLASH User Option Bytes values
1272:Drivers/STM32H7xx_HAL_Driver/Src/stm32h7xx_hal_flash_ex.c ****   *         IWDG_SW(Bit4), nRST_STOP_D1(Bit 6), nRST_STDY_D1(Bit 7),
1273:Drivers/STM32H7xx_HAL_Driver/Src/stm32h7xx_hal_flash_ex.c ****   *         FZ_IWDG_STOP(Bit 17), FZ_IWDG_SDBY(Bit 18), ST_RAM_SIZE(Bit[19:20]),
1274:Drivers/STM32H7xx_HAL_Driver/Src/stm32h7xx_hal_flash_ex.c ****   *         SECURITY(Bit 21), IO_HSLV (Bit 29) and SWAP_BANK_OPT(Bit 31).
1275:Drivers/STM32H7xx_HAL_Driver/Src/stm32h7xx_hal_flash_ex.c ****   */
1276:Drivers/STM32H7xx_HAL_Driver/Src/stm32h7xx_hal_flash_ex.c **** #endif /*DUAL_CORE*/
1277:Drivers/STM32H7xx_HAL_Driver/Src/stm32h7xx_hal_flash_ex.c **** static uint32_t FLASH_OB_GetUser(void)
1278:Drivers/STM32H7xx_HAL_Driver/Src/stm32h7xx_hal_flash_ex.c **** {
 620              		.loc 1 1278 1 is_stmt 1 view -0
 621              		.cfi_startproc
 622              		@ args = 0, pretend = 0, frame = 0
 623              		@ frame_needed = 0, uses_anonymous_args = 0
 624              		@ link register save eliminated.
1279:Drivers/STM32H7xx_HAL_Driver/Src/stm32h7xx_hal_flash_ex.c ****   uint32_t userConfig = READ_REG(FLASH->OPTSR_CUR);
 625              		.loc 1 1279 3 view .LVU191
 626              		.loc 1 1279 12 is_stmt 0 view .LVU192
 627 0000 024B     		ldr	r3, .L53
 628 0002 DB69     		ldr	r3, [r3, #28]
 629              	.LVL48:
1280:Drivers/STM32H7xx_HAL_Driver/Src/stm32h7xx_hal_flash_ex.c ****   userConfig &= (~(FLASH_OPTSR_BOR_LEV | FLASH_OPTSR_RDP));
 630              		.loc 1 1280 3 is_stmt 1 view .LVU193
1281:Drivers/STM32H7xx_HAL_Driver/Src/stm32h7xx_hal_flash_ex.c **** 
1282:Drivers/STM32H7xx_HAL_Driver/Src/stm32h7xx_hal_flash_ex.c ****   return userConfig;
 631              		.loc 1 1282 3 view .LVU194
1283:Drivers/STM32H7xx_HAL_Driver/Src/stm32h7xx_hal_flash_ex.c **** }
 632              		.loc 1 1283 1 is_stmt 0 view .LVU195
 633 0004 0248     		ldr	r0, .L53+4
 634 0006 1840     		ands	r0, r0, r3
 635              	.LVL49:
 636              		.loc 1 1283 1 view .LVU196
 637 0008 7047     		bx	lr
 638              	.L54:
 639 000a 00BF     		.align	2
 640              	.L53:
 641 000c 00200052 		.word	1375739904
 642 0010 F300FFFF 		.word	-65293
 643              		.cfi_endproc
 644              	.LFE158:
 646              		.section	.text.FLASH_OB_PCROPConfig,"ax",%progbits
 647              		.align	1
 648              		.syntax unified
 649              		.thumb
ARM GAS  C:\Users\chesn\AppData\Local\Temp\ccAfRyoq.s 			page 35


 650              		.thumb_func
 651              		.fpu fpv5-d16
 653              	FLASH_OB_PCROPConfig:
 654              	.LVL50:
 655              	.LFB159:
1284:Drivers/STM32H7xx_HAL_Driver/Src/stm32h7xx_hal_flash_ex.c **** 
1285:Drivers/STM32H7xx_HAL_Driver/Src/stm32h7xx_hal_flash_ex.c **** /**
1286:Drivers/STM32H7xx_HAL_Driver/Src/stm32h7xx_hal_flash_ex.c ****   * @brief  Configure the Proprietary code readout protection of the desired addresses
1287:Drivers/STM32H7xx_HAL_Driver/Src/stm32h7xx_hal_flash_ex.c ****   *
1288:Drivers/STM32H7xx_HAL_Driver/Src/stm32h7xx_hal_flash_ex.c ****   * @note   To configure the PCROP options, the option lock bit OPTLOCK must be
1289:Drivers/STM32H7xx_HAL_Driver/Src/stm32h7xx_hal_flash_ex.c ****   *         cleared with the call of the HAL_FLASH_OB_Unlock() function.
1290:Drivers/STM32H7xx_HAL_Driver/Src/stm32h7xx_hal_flash_ex.c ****   * @note   To validate the PCROP options, the option bytes must be reloaded
1291:Drivers/STM32H7xx_HAL_Driver/Src/stm32h7xx_hal_flash_ex.c ****   *         through the call of the HAL_FLASH_OB_Launch() function.
1292:Drivers/STM32H7xx_HAL_Driver/Src/stm32h7xx_hal_flash_ex.c ****   *
1293:Drivers/STM32H7xx_HAL_Driver/Src/stm32h7xx_hal_flash_ex.c ****   * @param  PCROPConfig specifies if the PCROP area for the given Bank shall be erased or not
1294:Drivers/STM32H7xx_HAL_Driver/Src/stm32h7xx_hal_flash_ex.c ****   *         when RDP level decreased from Level 1 to Level 0, or after a bank erase with protection
1295:Drivers/STM32H7xx_HAL_Driver/Src/stm32h7xx_hal_flash_ex.c ****   *         This parameter must be a value of @arg FLASHEx_OB_PCROP_RDP enumeration
1296:Drivers/STM32H7xx_HAL_Driver/Src/stm32h7xx_hal_flash_ex.c ****   *
1297:Drivers/STM32H7xx_HAL_Driver/Src/stm32h7xx_hal_flash_ex.c ****   * @param  PCROPStartAddr specifies the start address of the Proprietary code readout protection
1298:Drivers/STM32H7xx_HAL_Driver/Src/stm32h7xx_hal_flash_ex.c ****   *          This parameter can be an address between begin and end of the bank
1299:Drivers/STM32H7xx_HAL_Driver/Src/stm32h7xx_hal_flash_ex.c ****   *
1300:Drivers/STM32H7xx_HAL_Driver/Src/stm32h7xx_hal_flash_ex.c ****   * @param  PCROPEndAddr specifies the end address of the Proprietary code readout protection
1301:Drivers/STM32H7xx_HAL_Driver/Src/stm32h7xx_hal_flash_ex.c ****   *          This parameter can be an address between PCROPStartAddr and end of the bank
1302:Drivers/STM32H7xx_HAL_Driver/Src/stm32h7xx_hal_flash_ex.c ****   *
1303:Drivers/STM32H7xx_HAL_Driver/Src/stm32h7xx_hal_flash_ex.c ****   * @param  Banks the specific bank to apply PCROP protection
1304:Drivers/STM32H7xx_HAL_Driver/Src/stm32h7xx_hal_flash_ex.c ****   *          This parameter can be one of the following values:
1305:Drivers/STM32H7xx_HAL_Driver/Src/stm32h7xx_hal_flash_ex.c ****   *            @arg FLASH_BANK_1: PCROP on specified bank1 area
1306:Drivers/STM32H7xx_HAL_Driver/Src/stm32h7xx_hal_flash_ex.c ****   *            @arg FLASH_BANK_2: PCROP on specified bank2 area
1307:Drivers/STM32H7xx_HAL_Driver/Src/stm32h7xx_hal_flash_ex.c ****   *            @arg FLASH_BANK_BOTH: PCROP on specified bank1 and bank2 area (same config will be a
1308:Drivers/STM32H7xx_HAL_Driver/Src/stm32h7xx_hal_flash_ex.c ****   *
1309:Drivers/STM32H7xx_HAL_Driver/Src/stm32h7xx_hal_flash_ex.c ****   * @retval None
1310:Drivers/STM32H7xx_HAL_Driver/Src/stm32h7xx_hal_flash_ex.c ****   */
1311:Drivers/STM32H7xx_HAL_Driver/Src/stm32h7xx_hal_flash_ex.c **** static void FLASH_OB_PCROPConfig(uint32_t PCROPConfig, uint32_t PCROPStartAddr, uint32_t PCROPEndAd
1312:Drivers/STM32H7xx_HAL_Driver/Src/stm32h7xx_hal_flash_ex.c **** {
 656              		.loc 1 1312 1 is_stmt 1 view -0
 657              		.cfi_startproc
 658              		@ args = 0, pretend = 0, frame = 0
 659              		@ frame_needed = 0, uses_anonymous_args = 0
 660              		@ link register save eliminated.
 661              		.loc 1 1312 1 is_stmt 0 view .LVU198
 662 0000 30B4     		push	{r4, r5}
 663              	.LCFI7:
 664              		.cfi_def_cfa_offset 8
 665              		.cfi_offset 4, -8
 666              		.cfi_offset 5, -4
1313:Drivers/STM32H7xx_HAL_Driver/Src/stm32h7xx_hal_flash_ex.c ****   /* Check the parameters */
1314:Drivers/STM32H7xx_HAL_Driver/Src/stm32h7xx_hal_flash_ex.c ****   assert_param(IS_FLASH_BANK(Banks));
 667              		.loc 1 1314 3 is_stmt 1 view .LVU199
1315:Drivers/STM32H7xx_HAL_Driver/Src/stm32h7xx_hal_flash_ex.c ****   assert_param(IS_OB_PCROP_RDP(PCROPConfig));
 668              		.loc 1 1315 3 view .LVU200
1316:Drivers/STM32H7xx_HAL_Driver/Src/stm32h7xx_hal_flash_ex.c **** 
1317:Drivers/STM32H7xx_HAL_Driver/Src/stm32h7xx_hal_flash_ex.c ****   if((Banks & FLASH_BANK_1) == FLASH_BANK_1)
 669              		.loc 1 1317 3 view .LVU201
 670              		.loc 1 1317 5 is_stmt 0 view .LVU202
 671 0002 13F0010F 		tst	r3, #1
 672 0006 0AD0     		beq	.L56
1318:Drivers/STM32H7xx_HAL_Driver/Src/stm32h7xx_hal_flash_ex.c ****   {
ARM GAS  C:\Users\chesn\AppData\Local\Temp\ccAfRyoq.s 			page 36


1319:Drivers/STM32H7xx_HAL_Driver/Src/stm32h7xx_hal_flash_ex.c ****     assert_param(IS_FLASH_PROGRAM_ADDRESS_BANK1(PCROPStartAddr));
 673              		.loc 1 1319 5 is_stmt 1 view .LVU203
1320:Drivers/STM32H7xx_HAL_Driver/Src/stm32h7xx_hal_flash_ex.c ****     assert_param(IS_FLASH_PROGRAM_ADDRESS_BANK1(PCROPEndAddr));
 674              		.loc 1 1320 5 view .LVU204
1321:Drivers/STM32H7xx_HAL_Driver/Src/stm32h7xx_hal_flash_ex.c **** 
1322:Drivers/STM32H7xx_HAL_Driver/Src/stm32h7xx_hal_flash_ex.c ****     /* Configure the Proprietary code readout protection */
1323:Drivers/STM32H7xx_HAL_Driver/Src/stm32h7xx_hal_flash_ex.c ****     FLASH->PRAR_PRG1 = ((PCROPStartAddr - FLASH_BANK1_BASE) >> 8)                                 |
 675              		.loc 1 1323 5 view .LVU205
 676              		.loc 1 1323 41 is_stmt 0 view .LVU206
 677 0008 01F17844 		add	r4, r1, #-134217728
1324:Drivers/STM32H7xx_HAL_Driver/Src/stm32h7xx_hal_flash_ex.c ****                        (((PCROPEndAddr - FLASH_BANK1_BASE) >> 8) << FLASH_PRAR_PROT_AREA_END_Pos) |
 678              		.loc 1 1324 40 view .LVU207
 679 000c 02F17845 		add	r5, r2, #-134217728
 680              		.loc 1 1324 60 view .LVU208
 681 0010 2D0A     		lsrs	r5, r5, #8
 682              		.loc 1 1324 66 view .LVU209
 683 0012 2D04     		lsls	r5, r5, #16
1323:Drivers/STM32H7xx_HAL_Driver/Src/stm32h7xx_hal_flash_ex.c ****                        (((PCROPEndAddr - FLASH_BANK1_BASE) >> 8) << FLASH_PRAR_PROT_AREA_END_Pos) |
 684              		.loc 1 1323 99 view .LVU210
 685 0014 45EA1424 		orr	r4, r5, r4, lsr #8
 686              		.loc 1 1324 99 view .LVU211
 687 0018 0443     		orrs	r4, r4, r0
1323:Drivers/STM32H7xx_HAL_Driver/Src/stm32h7xx_hal_flash_ex.c ****                        (((PCROPEndAddr - FLASH_BANK1_BASE) >> 8) << FLASH_PRAR_PROT_AREA_END_Pos) |
 688              		.loc 1 1323 22 view .LVU212
 689 001a 094D     		ldr	r5, .L59
 690 001c EC62     		str	r4, [r5, #44]
 691              	.L56:
1325:Drivers/STM32H7xx_HAL_Driver/Src/stm32h7xx_hal_flash_ex.c ****                        PCROPConfig;
1326:Drivers/STM32H7xx_HAL_Driver/Src/stm32h7xx_hal_flash_ex.c ****   }
1327:Drivers/STM32H7xx_HAL_Driver/Src/stm32h7xx_hal_flash_ex.c **** 
1328:Drivers/STM32H7xx_HAL_Driver/Src/stm32h7xx_hal_flash_ex.c ****   if((Banks & FLASH_BANK_2) == FLASH_BANK_2)
 692              		.loc 1 1328 3 is_stmt 1 view .LVU213
 693              		.loc 1 1328 5 is_stmt 0 view .LVU214
 694 001e 13F0020F 		tst	r3, #2
 695 0022 0BD0     		beq	.L55
1329:Drivers/STM32H7xx_HAL_Driver/Src/stm32h7xx_hal_flash_ex.c ****   {
1330:Drivers/STM32H7xx_HAL_Driver/Src/stm32h7xx_hal_flash_ex.c ****     assert_param(IS_FLASH_PROGRAM_ADDRESS_BANK2(PCROPStartAddr));
 696              		.loc 1 1330 5 is_stmt 1 view .LVU215
1331:Drivers/STM32H7xx_HAL_Driver/Src/stm32h7xx_hal_flash_ex.c ****     assert_param(IS_FLASH_PROGRAM_ADDRESS_BANK2(PCROPEndAddr));
 697              		.loc 1 1331 5 view .LVU216
1332:Drivers/STM32H7xx_HAL_Driver/Src/stm32h7xx_hal_flash_ex.c **** 
1333:Drivers/STM32H7xx_HAL_Driver/Src/stm32h7xx_hal_flash_ex.c ****     /* Configure the Proprietary code readout protection */
1334:Drivers/STM32H7xx_HAL_Driver/Src/stm32h7xx_hal_flash_ex.c ****     FLASH->PRAR_PRG2 = ((PCROPStartAddr - FLASH_BANK2_BASE) >> 8)                                 |
 698              		.loc 1 1334 5 view .LVU217
 699              		.loc 1 1334 41 is_stmt 0 view .LVU218
 700 0024 A1F10161 		sub	r1, r1, #135266304
 701              	.LVL51:
1335:Drivers/STM32H7xx_HAL_Driver/Src/stm32h7xx_hal_flash_ex.c ****                        (((PCROPEndAddr - FLASH_BANK2_BASE) >> 8) << FLASH_PRAR_PROT_AREA_END_Pos) |
 702              		.loc 1 1335 40 view .LVU219
 703 0028 A2F10162 		sub	r2, r2, #135266304
 704              	.LVL52:
 705              		.loc 1 1335 60 view .LVU220
 706 002c 120A     		lsrs	r2, r2, #8
 707              	.LVL53:
 708              		.loc 1 1335 66 view .LVU221
 709 002e 1204     		lsls	r2, r2, #16
1334:Drivers/STM32H7xx_HAL_Driver/Src/stm32h7xx_hal_flash_ex.c ****                        (((PCROPEndAddr - FLASH_BANK2_BASE) >> 8) << FLASH_PRAR_PROT_AREA_END_Pos) |
ARM GAS  C:\Users\chesn\AppData\Local\Temp\ccAfRyoq.s 			page 37


 710              		.loc 1 1334 99 view .LVU222
 711 0030 42EA1122 		orr	r2, r2, r1, lsr #8
 712              		.loc 1 1335 99 view .LVU223
 713 0034 1043     		orrs	r0, r0, r2
 714              	.LVL54:
1334:Drivers/STM32H7xx_HAL_Driver/Src/stm32h7xx_hal_flash_ex.c ****                        (((PCROPEndAddr - FLASH_BANK2_BASE) >> 8) << FLASH_PRAR_PROT_AREA_END_Pos) |
 715              		.loc 1 1334 22 view .LVU224
 716 0036 024B     		ldr	r3, .L59
 717              	.LVL55:
1334:Drivers/STM32H7xx_HAL_Driver/Src/stm32h7xx_hal_flash_ex.c ****                        (((PCROPEndAddr - FLASH_BANK2_BASE) >> 8) << FLASH_PRAR_PROT_AREA_END_Pos) |
 718              		.loc 1 1334 22 view .LVU225
 719 0038 C3F82C01 		str	r0, [r3, #300]
 720              	.LVL56:
 721              	.L55:
1336:Drivers/STM32H7xx_HAL_Driver/Src/stm32h7xx_hal_flash_ex.c ****                        PCROPConfig;
1337:Drivers/STM32H7xx_HAL_Driver/Src/stm32h7xx_hal_flash_ex.c ****   }
1338:Drivers/STM32H7xx_HAL_Driver/Src/stm32h7xx_hal_flash_ex.c **** }
 722              		.loc 1 1338 1 view .LVU226
 723 003c 30BC     		pop	{r4, r5}
 724              	.LCFI8:
 725              		.cfi_restore 5
 726              		.cfi_restore 4
 727              		.cfi_def_cfa_offset 0
 728 003e 7047     		bx	lr
 729              	.L60:
 730              		.align	2
 731              	.L59:
 732 0040 00200052 		.word	1375739904
 733              		.cfi_endproc
 734              	.LFE159:
 736              		.section	.text.FLASH_OB_GetPCROP,"ax",%progbits
 737              		.align	1
 738              		.syntax unified
 739              		.thumb
 740              		.thumb_func
 741              		.fpu fpv5-d16
 743              	FLASH_OB_GetPCROP:
 744              	.LVL57:
 745              	.LFB160:
1339:Drivers/STM32H7xx_HAL_Driver/Src/stm32h7xx_hal_flash_ex.c **** 
1340:Drivers/STM32H7xx_HAL_Driver/Src/stm32h7xx_hal_flash_ex.c **** /**
1341:Drivers/STM32H7xx_HAL_Driver/Src/stm32h7xx_hal_flash_ex.c ****   * @brief  Get the Proprietary code readout protection configuration on a given Bank
1342:Drivers/STM32H7xx_HAL_Driver/Src/stm32h7xx_hal_flash_ex.c ****   *
1343:Drivers/STM32H7xx_HAL_Driver/Src/stm32h7xx_hal_flash_ex.c ****   * @param  PCROPConfig indicates if the PCROP area for the given Bank shall be erased or not
1344:Drivers/STM32H7xx_HAL_Driver/Src/stm32h7xx_hal_flash_ex.c ****   *         when RDP level decreased from Level 1 to Level 0 or after a bank erase with protection 
1345:Drivers/STM32H7xx_HAL_Driver/Src/stm32h7xx_hal_flash_ex.c ****   *
1346:Drivers/STM32H7xx_HAL_Driver/Src/stm32h7xx_hal_flash_ex.c ****   * @param  PCROPStartAddr gives the start address of the Proprietary code readout protection of th
1347:Drivers/STM32H7xx_HAL_Driver/Src/stm32h7xx_hal_flash_ex.c ****   *
1348:Drivers/STM32H7xx_HAL_Driver/Src/stm32h7xx_hal_flash_ex.c ****   * @param  PCROPEndAddr gives the end address of the Proprietary code readout protection of the ba
1349:Drivers/STM32H7xx_HAL_Driver/Src/stm32h7xx_hal_flash_ex.c ****   *
1350:Drivers/STM32H7xx_HAL_Driver/Src/stm32h7xx_hal_flash_ex.c ****   * @param  Bank the specific bank to apply PCROP protection
1351:Drivers/STM32H7xx_HAL_Driver/Src/stm32h7xx_hal_flash_ex.c ****   *          This parameter can be exclusively one of the following values:
1352:Drivers/STM32H7xx_HAL_Driver/Src/stm32h7xx_hal_flash_ex.c ****   *            @arg FLASH_BANK_1: PCROP on specified bank1 area
1353:Drivers/STM32H7xx_HAL_Driver/Src/stm32h7xx_hal_flash_ex.c ****   *            @arg FLASH_BANK_2: PCROP on specified bank2 area
1354:Drivers/STM32H7xx_HAL_Driver/Src/stm32h7xx_hal_flash_ex.c ****   *            @arg FLASH_BANK_BOTH: is  not allowed here
1355:Drivers/STM32H7xx_HAL_Driver/Src/stm32h7xx_hal_flash_ex.c ****   *
1356:Drivers/STM32H7xx_HAL_Driver/Src/stm32h7xx_hal_flash_ex.c ****   * @retval None
ARM GAS  C:\Users\chesn\AppData\Local\Temp\ccAfRyoq.s 			page 38


1357:Drivers/STM32H7xx_HAL_Driver/Src/stm32h7xx_hal_flash_ex.c ****   */
1358:Drivers/STM32H7xx_HAL_Driver/Src/stm32h7xx_hal_flash_ex.c **** static void FLASH_OB_GetPCROP(uint32_t *PCROPConfig, uint32_t *PCROPStartAddr, uint32_t *PCROPEndAd
1359:Drivers/STM32H7xx_HAL_Driver/Src/stm32h7xx_hal_flash_ex.c **** {
 746              		.loc 1 1359 1 is_stmt 1 view -0
 747              		.cfi_startproc
 748              		@ args = 0, pretend = 0, frame = 0
 749              		@ frame_needed = 0, uses_anonymous_args = 0
 750              		@ link register save eliminated.
 751              		.loc 1 1359 1 is_stmt 0 view .LVU228
 752 0000 30B4     		push	{r4, r5}
 753              	.LCFI9:
 754              		.cfi_def_cfa_offset 8
 755              		.cfi_offset 4, -8
 756              		.cfi_offset 5, -4
1360:Drivers/STM32H7xx_HAL_Driver/Src/stm32h7xx_hal_flash_ex.c ****   uint32_t regvalue = 0;
 757              		.loc 1 1360 3 is_stmt 1 view .LVU229
 758              	.LVL58:
1361:Drivers/STM32H7xx_HAL_Driver/Src/stm32h7xx_hal_flash_ex.c ****   uint32_t bankBase = 0;
 759              		.loc 1 1361 3 view .LVU230
1362:Drivers/STM32H7xx_HAL_Driver/Src/stm32h7xx_hal_flash_ex.c **** 
1363:Drivers/STM32H7xx_HAL_Driver/Src/stm32h7xx_hal_flash_ex.c ****   if((Bank & FLASH_BANK_BOTH) == FLASH_BANK_1)
 760              		.loc 1 1363 3 view .LVU231
 761              		.loc 1 1363 12 is_stmt 0 view .LVU232
 762 0002 03F00303 		and	r3, r3, #3
 763              	.LVL59:
 764              		.loc 1 1363 5 view .LVU233
 765 0006 012B     		cmp	r3, #1
 766 0008 12D0     		beq	.L66
1361:Drivers/STM32H7xx_HAL_Driver/Src/stm32h7xx_hal_flash_ex.c ****   uint32_t bankBase = 0;
 767              		.loc 1 1361 12 view .LVU234
 768 000a 0025     		movs	r5, #0
1360:Drivers/STM32H7xx_HAL_Driver/Src/stm32h7xx_hal_flash_ex.c ****   uint32_t bankBase = 0;
 769              		.loc 1 1360 12 view .LVU235
 770 000c 2C46     		mov	r4, r5
 771              	.LVL60:
 772              	.L62:
1364:Drivers/STM32H7xx_HAL_Driver/Src/stm32h7xx_hal_flash_ex.c ****   {
1365:Drivers/STM32H7xx_HAL_Driver/Src/stm32h7xx_hal_flash_ex.c ****     regvalue = FLASH->PRAR_CUR1;
1366:Drivers/STM32H7xx_HAL_Driver/Src/stm32h7xx_hal_flash_ex.c ****     bankBase = FLASH_BANK1_BASE;
1367:Drivers/STM32H7xx_HAL_Driver/Src/stm32h7xx_hal_flash_ex.c ****   }
1368:Drivers/STM32H7xx_HAL_Driver/Src/stm32h7xx_hal_flash_ex.c **** 
1369:Drivers/STM32H7xx_HAL_Driver/Src/stm32h7xx_hal_flash_ex.c ****   if((Bank & FLASH_BANK_BOTH) == FLASH_BANK_2)
 773              		.loc 1 1369 3 is_stmt 1 view .LVU236
 774              		.loc 1 1369 5 is_stmt 0 view .LVU237
 775 000e 022B     		cmp	r3, #2
 776 0010 13D0     		beq	.L67
 777              	.LVL61:
 778              	.L63:
1370:Drivers/STM32H7xx_HAL_Driver/Src/stm32h7xx_hal_flash_ex.c ****   {
1371:Drivers/STM32H7xx_HAL_Driver/Src/stm32h7xx_hal_flash_ex.c ****     regvalue = FLASH->PRAR_CUR2;
1372:Drivers/STM32H7xx_HAL_Driver/Src/stm32h7xx_hal_flash_ex.c ****     bankBase = FLASH_BANK2_BASE;
1373:Drivers/STM32H7xx_HAL_Driver/Src/stm32h7xx_hal_flash_ex.c ****   }
1374:Drivers/STM32H7xx_HAL_Driver/Src/stm32h7xx_hal_flash_ex.c **** 
1375:Drivers/STM32H7xx_HAL_Driver/Src/stm32h7xx_hal_flash_ex.c ****   (*PCROPConfig) =  (regvalue & FLASH_PRAR_DMEP);
 779              		.loc 1 1375 3 is_stmt 1 view .LVU238
 780              		.loc 1 1375 31 is_stmt 0 view .LVU239
 781 0012 04F00043 		and	r3, r4, #-2147483648
ARM GAS  C:\Users\chesn\AppData\Local\Temp\ccAfRyoq.s 			page 39


 782              		.loc 1 1375 18 view .LVU240
 783 0016 0360     		str	r3, [r0]
1376:Drivers/STM32H7xx_HAL_Driver/Src/stm32h7xx_hal_flash_ex.c **** 
1377:Drivers/STM32H7xx_HAL_Driver/Src/stm32h7xx_hal_flash_ex.c ****   (*PCROPStartAddr) = ((regvalue & FLASH_PRAR_PROT_AREA_START) << 8) + bankBase;
 784              		.loc 1 1377 3 is_stmt 1 view .LVU241
 785              		.loc 1 1377 64 is_stmt 0 view .LVU242
 786 0018 0B4B     		ldr	r3, .L68
 787 001a 03EA0423 		and	r3, r3, r4, lsl #8
 788              		.loc 1 1377 70 view .LVU243
 789 001e 2B44     		add	r3, r3, r5
 790              		.loc 1 1377 21 view .LVU244
 791 0020 0B60     		str	r3, [r1]
1378:Drivers/STM32H7xx_HAL_Driver/Src/stm32h7xx_hal_flash_ex.c ****   (*PCROPEndAddr) = (regvalue & FLASH_PRAR_PROT_AREA_END) >> FLASH_PRAR_PROT_AREA_END_Pos;
 792              		.loc 1 1378 3 is_stmt 1 view .LVU245
 793              		.loc 1 1378 59 is_stmt 0 view .LVU246
 794 0022 C4F30B44 		ubfx	r4, r4, #16, #12
 795              	.LVL62:
1379:Drivers/STM32H7xx_HAL_Driver/Src/stm32h7xx_hal_flash_ex.c ****   (*PCROPEndAddr) = ((*PCROPEndAddr) << 8) + bankBase;
 796              		.loc 1 1379 3 is_stmt 1 view .LVU247
 797              		.loc 1 1379 44 is_stmt 0 view .LVU248
 798 0026 05EB0424 		add	r4, r5, r4, lsl #8
 799              		.loc 1 1379 19 view .LVU249
 800 002a 1460     		str	r4, [r2]
1380:Drivers/STM32H7xx_HAL_Driver/Src/stm32h7xx_hal_flash_ex.c **** }
 801              		.loc 1 1380 1 view .LVU250
 802 002c 30BC     		pop	{r4, r5}
 803              	.LCFI10:
 804              		.cfi_remember_state
 805              		.cfi_restore 5
 806              		.cfi_restore 4
 807              		.cfi_def_cfa_offset 0
 808              	.LVL63:
 809              		.loc 1 1380 1 view .LVU251
 810 002e 7047     		bx	lr
 811              	.LVL64:
 812              	.L66:
 813              	.LCFI11:
 814              		.cfi_restore_state
1365:Drivers/STM32H7xx_HAL_Driver/Src/stm32h7xx_hal_flash_ex.c ****     bankBase = FLASH_BANK1_BASE;
 815              		.loc 1 1365 5 is_stmt 1 view .LVU252
1365:Drivers/STM32H7xx_HAL_Driver/Src/stm32h7xx_hal_flash_ex.c ****     bankBase = FLASH_BANK1_BASE;
 816              		.loc 1 1365 14 is_stmt 0 view .LVU253
 817 0030 064C     		ldr	r4, .L68+4
 818 0032 A46A     		ldr	r4, [r4, #40]
 819              	.LVL65:
1366:Drivers/STM32H7xx_HAL_Driver/Src/stm32h7xx_hal_flash_ex.c ****   }
 820              		.loc 1 1366 5 is_stmt 1 view .LVU254
1366:Drivers/STM32H7xx_HAL_Driver/Src/stm32h7xx_hal_flash_ex.c ****   }
 821              		.loc 1 1366 14 is_stmt 0 view .LVU255
 822 0034 4FF00065 		mov	r5, #134217728
 823 0038 E9E7     		b	.L62
 824              	.LVL66:
 825              	.L67:
1371:Drivers/STM32H7xx_HAL_Driver/Src/stm32h7xx_hal_flash_ex.c ****     bankBase = FLASH_BANK2_BASE;
 826              		.loc 1 1371 5 is_stmt 1 view .LVU256
1371:Drivers/STM32H7xx_HAL_Driver/Src/stm32h7xx_hal_flash_ex.c ****     bankBase = FLASH_BANK2_BASE;
 827              		.loc 1 1371 14 is_stmt 0 view .LVU257
ARM GAS  C:\Users\chesn\AppData\Local\Temp\ccAfRyoq.s 			page 40


 828 003a 044B     		ldr	r3, .L68+4
 829 003c D3F82841 		ldr	r4, [r3, #296]
 830              	.LVL67:
1372:Drivers/STM32H7xx_HAL_Driver/Src/stm32h7xx_hal_flash_ex.c ****   }
 831              		.loc 1 1372 5 is_stmt 1 view .LVU258
1372:Drivers/STM32H7xx_HAL_Driver/Src/stm32h7xx_hal_flash_ex.c ****   }
 832              		.loc 1 1372 14 is_stmt 0 view .LVU259
 833 0040 4FF00165 		mov	r5, #135266304
 834 0044 E5E7     		b	.L63
 835              	.L69:
 836 0046 00BF     		.align	2
 837              	.L68:
 838 0048 00FF0F00 		.word	1048320
 839 004c 00200052 		.word	1375739904
 840              		.cfi_endproc
 841              	.LFE160:
 843              		.section	.text.FLASH_OB_BOR_LevelConfig,"ax",%progbits
 844              		.align	1
 845              		.syntax unified
 846              		.thumb
 847              		.thumb_func
 848              		.fpu fpv5-d16
 850              	FLASH_OB_BOR_LevelConfig:
 851              	.LVL68:
 852              	.LFB161:
1381:Drivers/STM32H7xx_HAL_Driver/Src/stm32h7xx_hal_flash_ex.c **** 
1382:Drivers/STM32H7xx_HAL_Driver/Src/stm32h7xx_hal_flash_ex.c **** /**
1383:Drivers/STM32H7xx_HAL_Driver/Src/stm32h7xx_hal_flash_ex.c ****   * @brief  Set the BOR Level.
1384:Drivers/STM32H7xx_HAL_Driver/Src/stm32h7xx_hal_flash_ex.c ****   * @param  Level specifies the Option Bytes BOR Reset Level.
1385:Drivers/STM32H7xx_HAL_Driver/Src/stm32h7xx_hal_flash_ex.c ****   *          This parameter can be one of the following values:
1386:Drivers/STM32H7xx_HAL_Driver/Src/stm32h7xx_hal_flash_ex.c ****   *            @arg OB_BOR_LEVEL0: Reset level threshold is set to 1.6V
1387:Drivers/STM32H7xx_HAL_Driver/Src/stm32h7xx_hal_flash_ex.c ****   *            @arg OB_BOR_LEVEL1: Reset level threshold is set to 2.1V
1388:Drivers/STM32H7xx_HAL_Driver/Src/stm32h7xx_hal_flash_ex.c ****   *            @arg OB_BOR_LEVEL2: Reset level threshold is set to 2.4V
1389:Drivers/STM32H7xx_HAL_Driver/Src/stm32h7xx_hal_flash_ex.c ****   *            @arg OB_BOR_LEVEL3: Reset level threshold is set to 2.7V
1390:Drivers/STM32H7xx_HAL_Driver/Src/stm32h7xx_hal_flash_ex.c ****   * @retval None
1391:Drivers/STM32H7xx_HAL_Driver/Src/stm32h7xx_hal_flash_ex.c ****   */
1392:Drivers/STM32H7xx_HAL_Driver/Src/stm32h7xx_hal_flash_ex.c **** static void FLASH_OB_BOR_LevelConfig(uint32_t Level)
1393:Drivers/STM32H7xx_HAL_Driver/Src/stm32h7xx_hal_flash_ex.c **** {
 853              		.loc 1 1393 1 is_stmt 1 view -0
 854              		.cfi_startproc
 855              		@ args = 0, pretend = 0, frame = 0
 856              		@ frame_needed = 0, uses_anonymous_args = 0
 857              		@ link register save eliminated.
1394:Drivers/STM32H7xx_HAL_Driver/Src/stm32h7xx_hal_flash_ex.c ****   assert_param(IS_OB_BOR_LEVEL(Level));
 858              		.loc 1 1394 3 view .LVU261
1395:Drivers/STM32H7xx_HAL_Driver/Src/stm32h7xx_hal_flash_ex.c **** 
1396:Drivers/STM32H7xx_HAL_Driver/Src/stm32h7xx_hal_flash_ex.c ****   /* Configure BOR_LEV option byte */
1397:Drivers/STM32H7xx_HAL_Driver/Src/stm32h7xx_hal_flash_ex.c ****   MODIFY_REG(FLASH->OPTSR_PRG, FLASH_OPTSR_BOR_LEV, Level);
 859              		.loc 1 1397 3 view .LVU262
 860 0000 034A     		ldr	r2, .L71
 861 0002 136A     		ldr	r3, [r2, #32]
 862 0004 23F00C03 		bic	r3, r3, #12
 863 0008 0343     		orrs	r3, r3, r0
 864 000a 1362     		str	r3, [r2, #32]
1398:Drivers/STM32H7xx_HAL_Driver/Src/stm32h7xx_hal_flash_ex.c **** }
 865              		.loc 1 1398 1 is_stmt 0 view .LVU263
 866 000c 7047     		bx	lr
ARM GAS  C:\Users\chesn\AppData\Local\Temp\ccAfRyoq.s 			page 41


 867              	.L72:
 868 000e 00BF     		.align	2
 869              	.L71:
 870 0010 00200052 		.word	1375739904
 871              		.cfi_endproc
 872              	.LFE161:
 874              		.section	.text.FLASH_OB_GetBOR,"ax",%progbits
 875              		.align	1
 876              		.syntax unified
 877              		.thumb
 878              		.thumb_func
 879              		.fpu fpv5-d16
 881              	FLASH_OB_GetBOR:
 882              	.LFB162:
1399:Drivers/STM32H7xx_HAL_Driver/Src/stm32h7xx_hal_flash_ex.c **** 
1400:Drivers/STM32H7xx_HAL_Driver/Src/stm32h7xx_hal_flash_ex.c **** /**
1401:Drivers/STM32H7xx_HAL_Driver/Src/stm32h7xx_hal_flash_ex.c ****   * @brief  Get the BOR Level.
1402:Drivers/STM32H7xx_HAL_Driver/Src/stm32h7xx_hal_flash_ex.c ****   * @retval The Option Bytes BOR Reset Level.
1403:Drivers/STM32H7xx_HAL_Driver/Src/stm32h7xx_hal_flash_ex.c ****   *            This parameter can be one of the following values:
1404:Drivers/STM32H7xx_HAL_Driver/Src/stm32h7xx_hal_flash_ex.c ****   *            @arg OB_BOR_LEVEL0: Reset level threshold is set to 1.6V
1405:Drivers/STM32H7xx_HAL_Driver/Src/stm32h7xx_hal_flash_ex.c ****   *            @arg OB_BOR_LEVEL1: Reset level threshold is set to 2.1V
1406:Drivers/STM32H7xx_HAL_Driver/Src/stm32h7xx_hal_flash_ex.c ****   *            @arg OB_BOR_LEVEL2: Reset level threshold is set to 2.4V
1407:Drivers/STM32H7xx_HAL_Driver/Src/stm32h7xx_hal_flash_ex.c ****   *            @arg OB_BOR_LEVEL3: Reset level threshold is set to 2.7V
1408:Drivers/STM32H7xx_HAL_Driver/Src/stm32h7xx_hal_flash_ex.c ****   */
1409:Drivers/STM32H7xx_HAL_Driver/Src/stm32h7xx_hal_flash_ex.c **** static uint32_t FLASH_OB_GetBOR(void)
1410:Drivers/STM32H7xx_HAL_Driver/Src/stm32h7xx_hal_flash_ex.c **** {
 883              		.loc 1 1410 1 is_stmt 1 view -0
 884              		.cfi_startproc
 885              		@ args = 0, pretend = 0, frame = 0
 886              		@ frame_needed = 0, uses_anonymous_args = 0
 887              		@ link register save eliminated.
1411:Drivers/STM32H7xx_HAL_Driver/Src/stm32h7xx_hal_flash_ex.c ****   return (FLASH->OPTSR_CUR & FLASH_OPTSR_BOR_LEV);
 888              		.loc 1 1411 3 view .LVU265
 889              		.loc 1 1411 16 is_stmt 0 view .LVU266
 890 0000 024B     		ldr	r3, .L74
 891 0002 D869     		ldr	r0, [r3, #28]
1412:Drivers/STM32H7xx_HAL_Driver/Src/stm32h7xx_hal_flash_ex.c **** }
 892              		.loc 1 1412 1 view .LVU267
 893 0004 00F00C00 		and	r0, r0, #12
 894 0008 7047     		bx	lr
 895              	.L75:
 896 000a 00BF     		.align	2
 897              	.L74:
 898 000c 00200052 		.word	1375739904
 899              		.cfi_endproc
 900              	.LFE162:
 902              		.section	.text.FLASH_OB_BootAddConfig,"ax",%progbits
 903              		.align	1
 904              		.syntax unified
 905              		.thumb
 906              		.thumb_func
 907              		.fpu fpv5-d16
 909              	FLASH_OB_BootAddConfig:
 910              	.LVL69:
 911              	.LFB163:
1413:Drivers/STM32H7xx_HAL_Driver/Src/stm32h7xx_hal_flash_ex.c **** 
1414:Drivers/STM32H7xx_HAL_Driver/Src/stm32h7xx_hal_flash_ex.c **** /**
ARM GAS  C:\Users\chesn\AppData\Local\Temp\ccAfRyoq.s 			page 42


1415:Drivers/STM32H7xx_HAL_Driver/Src/stm32h7xx_hal_flash_ex.c ****   * @brief  Set Boot address
1416:Drivers/STM32H7xx_HAL_Driver/Src/stm32h7xx_hal_flash_ex.c ****   * @param  BootOption Boot address option byte to be programmed,
1417:Drivers/STM32H7xx_HAL_Driver/Src/stm32h7xx_hal_flash_ex.c ****   *                     This parameter must be a value of @ref FLASHEx_OB_BOOT_OPTION
1418:Drivers/STM32H7xx_HAL_Driver/Src/stm32h7xx_hal_flash_ex.c ****                         (OB_BOOT_ADD0, OB_BOOT_ADD1 or OB_BOOT_ADD_BOTH)
1419:Drivers/STM32H7xx_HAL_Driver/Src/stm32h7xx_hal_flash_ex.c ****   *
1420:Drivers/STM32H7xx_HAL_Driver/Src/stm32h7xx_hal_flash_ex.c ****   * @param  BootAddress0 Specifies the Boot Address 0
1421:Drivers/STM32H7xx_HAL_Driver/Src/stm32h7xx_hal_flash_ex.c ****   * @param  BootAddress1 Specifies the Boot Address 1
1422:Drivers/STM32H7xx_HAL_Driver/Src/stm32h7xx_hal_flash_ex.c ****   * @retval HAL Status
1423:Drivers/STM32H7xx_HAL_Driver/Src/stm32h7xx_hal_flash_ex.c ****   */
1424:Drivers/STM32H7xx_HAL_Driver/Src/stm32h7xx_hal_flash_ex.c **** static void FLASH_OB_BootAddConfig(uint32_t BootOption, uint32_t BootAddress0, uint32_t BootAddress
1425:Drivers/STM32H7xx_HAL_Driver/Src/stm32h7xx_hal_flash_ex.c **** {
 912              		.loc 1 1425 1 is_stmt 1 view -0
 913              		.cfi_startproc
 914              		@ args = 0, pretend = 0, frame = 0
 915              		@ frame_needed = 0, uses_anonymous_args = 0
 916              		@ link register save eliminated.
 917              		.loc 1 1425 1 is_stmt 0 view .LVU269
 918 0000 30B4     		push	{r4, r5}
 919              	.LCFI12:
 920              		.cfi_def_cfa_offset 8
 921              		.cfi_offset 4, -8
 922              		.cfi_offset 5, -4
1426:Drivers/STM32H7xx_HAL_Driver/Src/stm32h7xx_hal_flash_ex.c ****   /* Check the parameters */
1427:Drivers/STM32H7xx_HAL_Driver/Src/stm32h7xx_hal_flash_ex.c ****   assert_param(IS_OB_BOOT_ADD_OPTION(BootOption));
 923              		.loc 1 1427 3 is_stmt 1 view .LVU270
1428:Drivers/STM32H7xx_HAL_Driver/Src/stm32h7xx_hal_flash_ex.c **** 
1429:Drivers/STM32H7xx_HAL_Driver/Src/stm32h7xx_hal_flash_ex.c ****   if((BootOption & OB_BOOT_ADD0) == OB_BOOT_ADD0)
 924              		.loc 1 1429 3 view .LVU271
 925              		.loc 1 1429 5 is_stmt 0 view .LVU272
 926 0002 10F0010F 		tst	r0, #1
 927 0006 06D0     		beq	.L77
1430:Drivers/STM32H7xx_HAL_Driver/Src/stm32h7xx_hal_flash_ex.c ****   {
1431:Drivers/STM32H7xx_HAL_Driver/Src/stm32h7xx_hal_flash_ex.c ****     /* Check the parameters */
1432:Drivers/STM32H7xx_HAL_Driver/Src/stm32h7xx_hal_flash_ex.c ****     assert_param(IS_BOOT_ADDRESS(BootAddress0));
 928              		.loc 1 1432 5 is_stmt 1 view .LVU273
1433:Drivers/STM32H7xx_HAL_Driver/Src/stm32h7xx_hal_flash_ex.c **** 
1434:Drivers/STM32H7xx_HAL_Driver/Src/stm32h7xx_hal_flash_ex.c ****     /* Configure CM7 BOOT ADD0 */
1435:Drivers/STM32H7xx_HAL_Driver/Src/stm32h7xx_hal_flash_ex.c **** #if defined(DUAL_CORE)
1436:Drivers/STM32H7xx_HAL_Driver/Src/stm32h7xx_hal_flash_ex.c ****     MODIFY_REG(FLASH->BOOT7_PRG, FLASH_BOOT7_BCM7_ADD0, (BootAddress0 >> 16));
1437:Drivers/STM32H7xx_HAL_Driver/Src/stm32h7xx_hal_flash_ex.c **** #else /* Single Core*/
1438:Drivers/STM32H7xx_HAL_Driver/Src/stm32h7xx_hal_flash_ex.c ****     MODIFY_REG(FLASH->BOOT_PRG, FLASH_BOOT_ADD0, (BootAddress0 >> 16));
 929              		.loc 1 1438 5 view .LVU274
 930 0008 084C     		ldr	r4, .L80
 931 000a 656C     		ldr	r5, [r4, #68]
 932 000c 084B     		ldr	r3, .L80+4
 933 000e 2B40     		ands	r3, r3, r5
 934 0010 43EA1141 		orr	r1, r3, r1, lsr #16
 935              	.LVL70:
 936              		.loc 1 1438 5 is_stmt 0 view .LVU275
 937 0014 6164     		str	r1, [r4, #68]
 938              	.L77:
1439:Drivers/STM32H7xx_HAL_Driver/Src/stm32h7xx_hal_flash_ex.c **** #endif /* DUAL_CORE */
1440:Drivers/STM32H7xx_HAL_Driver/Src/stm32h7xx_hal_flash_ex.c ****   }
1441:Drivers/STM32H7xx_HAL_Driver/Src/stm32h7xx_hal_flash_ex.c **** 
1442:Drivers/STM32H7xx_HAL_Driver/Src/stm32h7xx_hal_flash_ex.c ****   if((BootOption & OB_BOOT_ADD1) == OB_BOOT_ADD1)
 939              		.loc 1 1442 3 is_stmt 1 view .LVU276
 940              		.loc 1 1442 5 is_stmt 0 view .LVU277
ARM GAS  C:\Users\chesn\AppData\Local\Temp\ccAfRyoq.s 			page 43


 941 0016 10F0020F 		tst	r0, #2
 942 001a 04D0     		beq	.L76
1443:Drivers/STM32H7xx_HAL_Driver/Src/stm32h7xx_hal_flash_ex.c ****   {
1444:Drivers/STM32H7xx_HAL_Driver/Src/stm32h7xx_hal_flash_ex.c ****     /* Check the parameters */
1445:Drivers/STM32H7xx_HAL_Driver/Src/stm32h7xx_hal_flash_ex.c ****     assert_param(IS_BOOT_ADDRESS(BootAddress1));
 943              		.loc 1 1445 5 is_stmt 1 view .LVU278
1446:Drivers/STM32H7xx_HAL_Driver/Src/stm32h7xx_hal_flash_ex.c **** 
1447:Drivers/STM32H7xx_HAL_Driver/Src/stm32h7xx_hal_flash_ex.c ****     /* Configure CM7 BOOT ADD1 */
1448:Drivers/STM32H7xx_HAL_Driver/Src/stm32h7xx_hal_flash_ex.c **** #if defined(DUAL_CORE)
1449:Drivers/STM32H7xx_HAL_Driver/Src/stm32h7xx_hal_flash_ex.c ****     MODIFY_REG(FLASH->BOOT7_PRG, FLASH_BOOT7_BCM7_ADD1, BootAddress1);
1450:Drivers/STM32H7xx_HAL_Driver/Src/stm32h7xx_hal_flash_ex.c **** #else /* Single Core*/
1451:Drivers/STM32H7xx_HAL_Driver/Src/stm32h7xx_hal_flash_ex.c ****     MODIFY_REG(FLASH->BOOT_PRG, FLASH_BOOT_ADD1, BootAddress1);
 944              		.loc 1 1451 5 view .LVU279
 945 001c 0349     		ldr	r1, .L80
 946 001e 4B6C     		ldr	r3, [r1, #68]
 947 0020 9BB2     		uxth	r3, r3
 948 0022 1A43     		orrs	r2, r2, r3
 949              	.LVL71:
 950              		.loc 1 1451 5 is_stmt 0 view .LVU280
 951 0024 4A64     		str	r2, [r1, #68]
 952              	.L76:
1452:Drivers/STM32H7xx_HAL_Driver/Src/stm32h7xx_hal_flash_ex.c **** #endif /* DUAL_CORE */
1453:Drivers/STM32H7xx_HAL_Driver/Src/stm32h7xx_hal_flash_ex.c ****   }
1454:Drivers/STM32H7xx_HAL_Driver/Src/stm32h7xx_hal_flash_ex.c **** }
 953              		.loc 1 1454 1 view .LVU281
 954 0026 30BC     		pop	{r4, r5}
 955              	.LCFI13:
 956              		.cfi_restore 5
 957              		.cfi_restore 4
 958              		.cfi_def_cfa_offset 0
 959 0028 7047     		bx	lr
 960              	.L81:
 961 002a 00BF     		.align	2
 962              	.L80:
 963 002c 00200052 		.word	1375739904
 964 0030 0000FFFF 		.word	-65536
 965              		.cfi_endproc
 966              	.LFE163:
 968              		.section	.text.FLASH_OB_GetBootAdd,"ax",%progbits
 969              		.align	1
 970              		.syntax unified
 971              		.thumb
 972              		.thumb_func
 973              		.fpu fpv5-d16
 975              	FLASH_OB_GetBootAdd:
 976              	.LVL72:
 977              	.LFB164:
1455:Drivers/STM32H7xx_HAL_Driver/Src/stm32h7xx_hal_flash_ex.c **** 
1456:Drivers/STM32H7xx_HAL_Driver/Src/stm32h7xx_hal_flash_ex.c **** /**
1457:Drivers/STM32H7xx_HAL_Driver/Src/stm32h7xx_hal_flash_ex.c ****   * @brief  Get Boot address
1458:Drivers/STM32H7xx_HAL_Driver/Src/stm32h7xx_hal_flash_ex.c ****   * @param  BootAddress0 Specifies the Boot Address 0.
1459:Drivers/STM32H7xx_HAL_Driver/Src/stm32h7xx_hal_flash_ex.c ****   * @param  BootAddress1 Specifies the Boot Address 1.
1460:Drivers/STM32H7xx_HAL_Driver/Src/stm32h7xx_hal_flash_ex.c ****   * @retval HAL Status
1461:Drivers/STM32H7xx_HAL_Driver/Src/stm32h7xx_hal_flash_ex.c ****   */
1462:Drivers/STM32H7xx_HAL_Driver/Src/stm32h7xx_hal_flash_ex.c **** static void FLASH_OB_GetBootAdd(uint32_t *BootAddress0, uint32_t *BootAddress1)
1463:Drivers/STM32H7xx_HAL_Driver/Src/stm32h7xx_hal_flash_ex.c **** {
 978              		.loc 1 1463 1 is_stmt 1 view -0
ARM GAS  C:\Users\chesn\AppData\Local\Temp\ccAfRyoq.s 			page 44


 979              		.cfi_startproc
 980              		@ args = 0, pretend = 0, frame = 0
 981              		@ frame_needed = 0, uses_anonymous_args = 0
 982              		@ link register save eliminated.
1464:Drivers/STM32H7xx_HAL_Driver/Src/stm32h7xx_hal_flash_ex.c ****   uint32_t regvalue;
 983              		.loc 1 1464 3 view .LVU283
1465:Drivers/STM32H7xx_HAL_Driver/Src/stm32h7xx_hal_flash_ex.c **** 
1466:Drivers/STM32H7xx_HAL_Driver/Src/stm32h7xx_hal_flash_ex.c **** #if defined(DUAL_CORE)
1467:Drivers/STM32H7xx_HAL_Driver/Src/stm32h7xx_hal_flash_ex.c ****   regvalue = FLASH->BOOT7_CUR;
1468:Drivers/STM32H7xx_HAL_Driver/Src/stm32h7xx_hal_flash_ex.c **** 
1469:Drivers/STM32H7xx_HAL_Driver/Src/stm32h7xx_hal_flash_ex.c ****   (*BootAddress0) = (regvalue & FLASH_BOOT7_BCM7_ADD0) << 16;
1470:Drivers/STM32H7xx_HAL_Driver/Src/stm32h7xx_hal_flash_ex.c ****   (*BootAddress1) = (regvalue & FLASH_BOOT7_BCM7_ADD1);
1471:Drivers/STM32H7xx_HAL_Driver/Src/stm32h7xx_hal_flash_ex.c **** #else /* Single Core */
1472:Drivers/STM32H7xx_HAL_Driver/Src/stm32h7xx_hal_flash_ex.c ****   regvalue = FLASH->BOOT_CUR;
 984              		.loc 1 1472 3 view .LVU284
 985              		.loc 1 1472 12 is_stmt 0 view .LVU285
 986 0000 034B     		ldr	r3, .L83
 987 0002 1A6C     		ldr	r2, [r3, #64]
 988              	.LVL73:
1473:Drivers/STM32H7xx_HAL_Driver/Src/stm32h7xx_hal_flash_ex.c **** 
1474:Drivers/STM32H7xx_HAL_Driver/Src/stm32h7xx_hal_flash_ex.c ****   (*BootAddress0) = (regvalue & FLASH_BOOT_ADD0) << 16;
 989              		.loc 1 1474 3 is_stmt 1 view .LVU286
 990              		.loc 1 1474 50 is_stmt 0 view .LVU287
 991 0004 1304     		lsls	r3, r2, #16
 992              		.loc 1 1474 19 view .LVU288
 993 0006 0360     		str	r3, [r0]
1475:Drivers/STM32H7xx_HAL_Driver/Src/stm32h7xx_hal_flash_ex.c ****   (*BootAddress1) = (regvalue & FLASH_BOOT_ADD1);
 994              		.loc 1 1475 3 is_stmt 1 view .LVU289
 995              		.loc 1 1475 31 is_stmt 0 view .LVU290
 996 0008 024B     		ldr	r3, .L83+4
 997 000a 1340     		ands	r3, r3, r2
 998              		.loc 1 1475 19 view .LVU291
 999 000c 0B60     		str	r3, [r1]
1476:Drivers/STM32H7xx_HAL_Driver/Src/stm32h7xx_hal_flash_ex.c **** #endif /* DUAL_CORE */
1477:Drivers/STM32H7xx_HAL_Driver/Src/stm32h7xx_hal_flash_ex.c **** }
 1000              		.loc 1 1477 1 view .LVU292
 1001 000e 7047     		bx	lr
 1002              	.L84:
 1003              		.align	2
 1004              	.L83:
 1005 0010 00200052 		.word	1375739904
 1006 0014 0000FFFF 		.word	-65536
 1007              		.cfi_endproc
 1008              	.LFE164:
 1010              		.section	.text.FLASH_OB_SecureAreaConfig,"ax",%progbits
 1011              		.align	1
 1012              		.syntax unified
 1013              		.thumb
 1014              		.thumb_func
 1015              		.fpu fpv5-d16
 1017              	FLASH_OB_SecureAreaConfig:
 1018              	.LVL74:
 1019              	.LFB165:
1478:Drivers/STM32H7xx_HAL_Driver/Src/stm32h7xx_hal_flash_ex.c **** 
1479:Drivers/STM32H7xx_HAL_Driver/Src/stm32h7xx_hal_flash_ex.c **** #if defined(DUAL_CORE)
1480:Drivers/STM32H7xx_HAL_Driver/Src/stm32h7xx_hal_flash_ex.c **** /**
1481:Drivers/STM32H7xx_HAL_Driver/Src/stm32h7xx_hal_flash_ex.c ****   * @brief  Set CM4 Boot address
ARM GAS  C:\Users\chesn\AppData\Local\Temp\ccAfRyoq.s 			page 45


1482:Drivers/STM32H7xx_HAL_Driver/Src/stm32h7xx_hal_flash_ex.c ****   * @param  BootOption Boot address option byte to be programmed,
1483:Drivers/STM32H7xx_HAL_Driver/Src/stm32h7xx_hal_flash_ex.c ****   *                     This parameter must be a value of @ref FLASHEx_OB_BOOT_OPTION
1484:Drivers/STM32H7xx_HAL_Driver/Src/stm32h7xx_hal_flash_ex.c ****                         (OB_BOOT_ADD0, OB_BOOT_ADD1 or OB_BOOT_ADD_BOTH)
1485:Drivers/STM32H7xx_HAL_Driver/Src/stm32h7xx_hal_flash_ex.c ****   *
1486:Drivers/STM32H7xx_HAL_Driver/Src/stm32h7xx_hal_flash_ex.c ****   * @param  BootAddress0 Specifies the CM4 Boot Address 0.
1487:Drivers/STM32H7xx_HAL_Driver/Src/stm32h7xx_hal_flash_ex.c ****   * @param  BootAddress1 Specifies the CM4 Boot Address 1.
1488:Drivers/STM32H7xx_HAL_Driver/Src/stm32h7xx_hal_flash_ex.c ****   * @retval HAL Status
1489:Drivers/STM32H7xx_HAL_Driver/Src/stm32h7xx_hal_flash_ex.c ****   */
1490:Drivers/STM32H7xx_HAL_Driver/Src/stm32h7xx_hal_flash_ex.c **** static void FLASH_OB_CM4BootAddConfig(uint32_t BootOption, uint32_t BootAddress0, uint32_t BootAddr
1491:Drivers/STM32H7xx_HAL_Driver/Src/stm32h7xx_hal_flash_ex.c **** {
1492:Drivers/STM32H7xx_HAL_Driver/Src/stm32h7xx_hal_flash_ex.c ****   /* Check the parameters */
1493:Drivers/STM32H7xx_HAL_Driver/Src/stm32h7xx_hal_flash_ex.c ****   assert_param(IS_OB_BOOT_ADD_OPTION(BootOption));
1494:Drivers/STM32H7xx_HAL_Driver/Src/stm32h7xx_hal_flash_ex.c **** 
1495:Drivers/STM32H7xx_HAL_Driver/Src/stm32h7xx_hal_flash_ex.c ****   if((BootOption & OB_BOOT_ADD0) == OB_BOOT_ADD0)
1496:Drivers/STM32H7xx_HAL_Driver/Src/stm32h7xx_hal_flash_ex.c ****   {
1497:Drivers/STM32H7xx_HAL_Driver/Src/stm32h7xx_hal_flash_ex.c ****     /* Check the parameters */
1498:Drivers/STM32H7xx_HAL_Driver/Src/stm32h7xx_hal_flash_ex.c ****     assert_param(IS_BOOT_ADDRESS(BootAddress0));
1499:Drivers/STM32H7xx_HAL_Driver/Src/stm32h7xx_hal_flash_ex.c **** 
1500:Drivers/STM32H7xx_HAL_Driver/Src/stm32h7xx_hal_flash_ex.c ****     /* Configure CM4 BOOT ADD0 */
1501:Drivers/STM32H7xx_HAL_Driver/Src/stm32h7xx_hal_flash_ex.c ****     MODIFY_REG(FLASH->BOOT4_PRG, FLASH_BOOT4_BCM4_ADD0, (BootAddress0 >> 16));
1502:Drivers/STM32H7xx_HAL_Driver/Src/stm32h7xx_hal_flash_ex.c **** 
1503:Drivers/STM32H7xx_HAL_Driver/Src/stm32h7xx_hal_flash_ex.c ****   }
1504:Drivers/STM32H7xx_HAL_Driver/Src/stm32h7xx_hal_flash_ex.c **** 
1505:Drivers/STM32H7xx_HAL_Driver/Src/stm32h7xx_hal_flash_ex.c ****   if((BootOption & OB_BOOT_ADD1) == OB_BOOT_ADD1)
1506:Drivers/STM32H7xx_HAL_Driver/Src/stm32h7xx_hal_flash_ex.c ****   {
1507:Drivers/STM32H7xx_HAL_Driver/Src/stm32h7xx_hal_flash_ex.c ****     /* Check the parameters */
1508:Drivers/STM32H7xx_HAL_Driver/Src/stm32h7xx_hal_flash_ex.c ****     assert_param(IS_BOOT_ADDRESS(BootAddress1));
1509:Drivers/STM32H7xx_HAL_Driver/Src/stm32h7xx_hal_flash_ex.c **** 
1510:Drivers/STM32H7xx_HAL_Driver/Src/stm32h7xx_hal_flash_ex.c ****     /* Configure CM4 BOOT ADD1 */
1511:Drivers/STM32H7xx_HAL_Driver/Src/stm32h7xx_hal_flash_ex.c ****     MODIFY_REG(FLASH->BOOT4_PRG, FLASH_BOOT4_BCM4_ADD1, BootAddress1);
1512:Drivers/STM32H7xx_HAL_Driver/Src/stm32h7xx_hal_flash_ex.c ****   }
1513:Drivers/STM32H7xx_HAL_Driver/Src/stm32h7xx_hal_flash_ex.c **** }
1514:Drivers/STM32H7xx_HAL_Driver/Src/stm32h7xx_hal_flash_ex.c **** 
1515:Drivers/STM32H7xx_HAL_Driver/Src/stm32h7xx_hal_flash_ex.c **** /**
1516:Drivers/STM32H7xx_HAL_Driver/Src/stm32h7xx_hal_flash_ex.c ****   * @brief  Get CM4 Boot address
1517:Drivers/STM32H7xx_HAL_Driver/Src/stm32h7xx_hal_flash_ex.c ****   * @param  BootAddress0 Specifies the CM4 Boot Address 0.
1518:Drivers/STM32H7xx_HAL_Driver/Src/stm32h7xx_hal_flash_ex.c ****   * @param  BootAddress1 Specifies the CM4 Boot Address 1.
1519:Drivers/STM32H7xx_HAL_Driver/Src/stm32h7xx_hal_flash_ex.c ****   * @retval HAL Status
1520:Drivers/STM32H7xx_HAL_Driver/Src/stm32h7xx_hal_flash_ex.c ****   */
1521:Drivers/STM32H7xx_HAL_Driver/Src/stm32h7xx_hal_flash_ex.c **** static void FLASH_OB_GetCM4BootAdd(uint32_t *BootAddress0, uint32_t *BootAddress1)
1522:Drivers/STM32H7xx_HAL_Driver/Src/stm32h7xx_hal_flash_ex.c **** {
1523:Drivers/STM32H7xx_HAL_Driver/Src/stm32h7xx_hal_flash_ex.c ****   uint32_t regvalue;
1524:Drivers/STM32H7xx_HAL_Driver/Src/stm32h7xx_hal_flash_ex.c **** 
1525:Drivers/STM32H7xx_HAL_Driver/Src/stm32h7xx_hal_flash_ex.c ****   regvalue = FLASH->BOOT4_CUR;
1526:Drivers/STM32H7xx_HAL_Driver/Src/stm32h7xx_hal_flash_ex.c **** 
1527:Drivers/STM32H7xx_HAL_Driver/Src/stm32h7xx_hal_flash_ex.c ****   (*BootAddress0) = (regvalue & FLASH_BOOT4_BCM4_ADD0) << 16;
1528:Drivers/STM32H7xx_HAL_Driver/Src/stm32h7xx_hal_flash_ex.c ****   (*BootAddress1) = (regvalue & FLASH_BOOT4_BCM4_ADD1);
1529:Drivers/STM32H7xx_HAL_Driver/Src/stm32h7xx_hal_flash_ex.c **** }
1530:Drivers/STM32H7xx_HAL_Driver/Src/stm32h7xx_hal_flash_ex.c **** #endif /*DUAL_CORE*/
1531:Drivers/STM32H7xx_HAL_Driver/Src/stm32h7xx_hal_flash_ex.c **** 
1532:Drivers/STM32H7xx_HAL_Driver/Src/stm32h7xx_hal_flash_ex.c **** /**
1533:Drivers/STM32H7xx_HAL_Driver/Src/stm32h7xx_hal_flash_ex.c ****   * @brief  Set secure area configuration
1534:Drivers/STM32H7xx_HAL_Driver/Src/stm32h7xx_hal_flash_ex.c ****   * @param  SecureAreaConfig specify if the secure area will be deleted or not
1535:Drivers/STM32H7xx_HAL_Driver/Src/stm32h7xx_hal_flash_ex.c ****   *         when RDP level decreased from Level 1 to Level 0 or during a mass erase.
1536:Drivers/STM32H7xx_HAL_Driver/Src/stm32h7xx_hal_flash_ex.c ****   *
1537:Drivers/STM32H7xx_HAL_Driver/Src/stm32h7xx_hal_flash_ex.c ****   * @param  SecureAreaStartAddr Specifies the secure area start address
1538:Drivers/STM32H7xx_HAL_Driver/Src/stm32h7xx_hal_flash_ex.c ****   * @param  SecureAreaEndAddr Specifies the secure area end address
ARM GAS  C:\Users\chesn\AppData\Local\Temp\ccAfRyoq.s 			page 46


1539:Drivers/STM32H7xx_HAL_Driver/Src/stm32h7xx_hal_flash_ex.c ****   * @param  Banks the specific bank to apply Security protection
1540:Drivers/STM32H7xx_HAL_Driver/Src/stm32h7xx_hal_flash_ex.c ****   *          This parameter can be one of the following values:
1541:Drivers/STM32H7xx_HAL_Driver/Src/stm32h7xx_hal_flash_ex.c ****   *            @arg FLASH_BANK_1: Secure area on specified bank1 area
1542:Drivers/STM32H7xx_HAL_Driver/Src/stm32h7xx_hal_flash_ex.c ****   *            @arg FLASH_BANK_2: Secure area on specified bank2 area
1543:Drivers/STM32H7xx_HAL_Driver/Src/stm32h7xx_hal_flash_ex.c ****   *            @arg FLASH_BANK_BOTH: Secure area on specified bank1 and bank2 area (same config wil
1544:Drivers/STM32H7xx_HAL_Driver/Src/stm32h7xx_hal_flash_ex.c ****   * @retval None
1545:Drivers/STM32H7xx_HAL_Driver/Src/stm32h7xx_hal_flash_ex.c ****   */
1546:Drivers/STM32H7xx_HAL_Driver/Src/stm32h7xx_hal_flash_ex.c **** static void FLASH_OB_SecureAreaConfig(uint32_t SecureAreaConfig, uint32_t SecureAreaStartAddr, uint
1547:Drivers/STM32H7xx_HAL_Driver/Src/stm32h7xx_hal_flash_ex.c **** {
 1020              		.loc 1 1547 1 is_stmt 1 view -0
 1021              		.cfi_startproc
 1022              		@ args = 0, pretend = 0, frame = 0
 1023              		@ frame_needed = 0, uses_anonymous_args = 0
 1024              		@ link register save eliminated.
 1025              		.loc 1 1547 1 is_stmt 0 view .LVU294
 1026 0000 30B4     		push	{r4, r5}
 1027              	.LCFI14:
 1028              		.cfi_def_cfa_offset 8
 1029              		.cfi_offset 4, -8
 1030              		.cfi_offset 5, -4
1548:Drivers/STM32H7xx_HAL_Driver/Src/stm32h7xx_hal_flash_ex.c ****   /* Check the parameters */
1549:Drivers/STM32H7xx_HAL_Driver/Src/stm32h7xx_hal_flash_ex.c ****   assert_param(IS_FLASH_BANK(Banks));
 1031              		.loc 1 1549 3 is_stmt 1 view .LVU295
1550:Drivers/STM32H7xx_HAL_Driver/Src/stm32h7xx_hal_flash_ex.c ****   assert_param(IS_OB_SECURE_RDP(SecureAreaConfig));
 1032              		.loc 1 1550 3 view .LVU296
1551:Drivers/STM32H7xx_HAL_Driver/Src/stm32h7xx_hal_flash_ex.c **** 
1552:Drivers/STM32H7xx_HAL_Driver/Src/stm32h7xx_hal_flash_ex.c ****   if((Banks & FLASH_BANK_1) == FLASH_BANK_1)
 1033              		.loc 1 1552 3 view .LVU297
 1034              		.loc 1 1552 5 is_stmt 0 view .LVU298
 1035 0002 13F0010F 		tst	r3, #1
 1036 0006 0CD0     		beq	.L86
1553:Drivers/STM32H7xx_HAL_Driver/Src/stm32h7xx_hal_flash_ex.c ****   {
1554:Drivers/STM32H7xx_HAL_Driver/Src/stm32h7xx_hal_flash_ex.c ****     /* Check the parameters */
1555:Drivers/STM32H7xx_HAL_Driver/Src/stm32h7xx_hal_flash_ex.c ****     assert_param(IS_FLASH_PROGRAM_ADDRESS_BANK1(SecureAreaStartAddr));
 1037              		.loc 1 1555 5 is_stmt 1 view .LVU299
1556:Drivers/STM32H7xx_HAL_Driver/Src/stm32h7xx_hal_flash_ex.c ****     assert_param(IS_FLASH_PROGRAM_ADDRESS_BANK1(SecureAreaEndAddr));
 1038              		.loc 1 1556 5 view .LVU300
1557:Drivers/STM32H7xx_HAL_Driver/Src/stm32h7xx_hal_flash_ex.c **** 
1558:Drivers/STM32H7xx_HAL_Driver/Src/stm32h7xx_hal_flash_ex.c ****     /* Configure the secure area */
1559:Drivers/STM32H7xx_HAL_Driver/Src/stm32h7xx_hal_flash_ex.c ****     FLASH->SCAR_PRG1 = ((SecureAreaStartAddr - FLASH_BANK1_BASE) >> 8)                             
 1039              		.loc 1 1559 5 view .LVU301
 1040              		.loc 1 1559 46 is_stmt 0 view .LVU302
 1041 0008 01F17844 		add	r4, r1, #-134217728
1560:Drivers/STM32H7xx_HAL_Driver/Src/stm32h7xx_hal_flash_ex.c ****                        (((SecureAreaEndAddr - FLASH_BANK1_BASE) >> 8) << FLASH_SCAR_SEC_AREA_END_Po
 1042              		.loc 1 1560 45 view .LVU303
 1043 000c 02F17845 		add	r5, r2, #-134217728
 1044              		.loc 1 1560 65 view .LVU304
 1045 0010 2D0A     		lsrs	r5, r5, #8
 1046              		.loc 1 1560 71 view .LVU305
 1047 0012 2D04     		lsls	r5, r5, #16
1559:Drivers/STM32H7xx_HAL_Driver/Src/stm32h7xx_hal_flash_ex.c ****                        (((SecureAreaEndAddr - FLASH_BANK1_BASE) >> 8) << FLASH_SCAR_SEC_AREA_END_Po
 1048              		.loc 1 1559 103 view .LVU306
 1049 0014 45EA1424 		orr	r4, r5, r4, lsr #8
1561:Drivers/STM32H7xx_HAL_Driver/Src/stm32h7xx_hal_flash_ex.c ****                        (SecureAreaConfig & FLASH_SCAR_DMES);
 1050              		.loc 1 1561 42 view .LVU307
 1051 0018 00F00045 		and	r5, r0, #-2147483648
1560:Drivers/STM32H7xx_HAL_Driver/Src/stm32h7xx_hal_flash_ex.c ****                        (((SecureAreaEndAddr - FLASH_BANK1_BASE) >> 8) << FLASH_SCAR_SEC_AREA_END_Po
ARM GAS  C:\Users\chesn\AppData\Local\Temp\ccAfRyoq.s 			page 47


 1052              		.loc 1 1560 103 view .LVU308
 1053 001c 2C43     		orrs	r4, r4, r5
1559:Drivers/STM32H7xx_HAL_Driver/Src/stm32h7xx_hal_flash_ex.c ****                        (((SecureAreaEndAddr - FLASH_BANK1_BASE) >> 8) << FLASH_SCAR_SEC_AREA_END_Po
 1054              		.loc 1 1559 22 view .LVU309
 1055 001e 0A4D     		ldr	r5, .L89
 1056 0020 6C63     		str	r4, [r5, #52]
 1057              	.L86:
1562:Drivers/STM32H7xx_HAL_Driver/Src/stm32h7xx_hal_flash_ex.c ****   }
1563:Drivers/STM32H7xx_HAL_Driver/Src/stm32h7xx_hal_flash_ex.c **** 
1564:Drivers/STM32H7xx_HAL_Driver/Src/stm32h7xx_hal_flash_ex.c ****   if((Banks & FLASH_BANK_2) == FLASH_BANK_2)
 1058              		.loc 1 1564 3 is_stmt 1 view .LVU310
 1059              		.loc 1 1564 5 is_stmt 0 view .LVU311
 1060 0022 13F0020F 		tst	r3, #2
 1061 0026 0DD0     		beq	.L85
1565:Drivers/STM32H7xx_HAL_Driver/Src/stm32h7xx_hal_flash_ex.c ****   {
1566:Drivers/STM32H7xx_HAL_Driver/Src/stm32h7xx_hal_flash_ex.c ****     /* Check the parameters */
1567:Drivers/STM32H7xx_HAL_Driver/Src/stm32h7xx_hal_flash_ex.c ****     assert_param(IS_FLASH_PROGRAM_ADDRESS_BANK2(SecureAreaStartAddr));
 1062              		.loc 1 1567 5 is_stmt 1 view .LVU312
1568:Drivers/STM32H7xx_HAL_Driver/Src/stm32h7xx_hal_flash_ex.c ****     assert_param(IS_FLASH_PROGRAM_ADDRESS_BANK2(SecureAreaEndAddr));
 1063              		.loc 1 1568 5 view .LVU313
1569:Drivers/STM32H7xx_HAL_Driver/Src/stm32h7xx_hal_flash_ex.c **** 
1570:Drivers/STM32H7xx_HAL_Driver/Src/stm32h7xx_hal_flash_ex.c ****     /* Configure the secure area */
1571:Drivers/STM32H7xx_HAL_Driver/Src/stm32h7xx_hal_flash_ex.c ****     FLASH->SCAR_PRG2 = ((SecureAreaStartAddr - FLASH_BANK2_BASE) >> 8)                             
 1064              		.loc 1 1571 5 view .LVU314
 1065              		.loc 1 1571 46 is_stmt 0 view .LVU315
 1066 0028 A1F10161 		sub	r1, r1, #135266304
 1067              	.LVL75:
1572:Drivers/STM32H7xx_HAL_Driver/Src/stm32h7xx_hal_flash_ex.c ****                        (((SecureAreaEndAddr - FLASH_BANK2_BASE) >> 8) << FLASH_SCAR_SEC_AREA_END_Po
 1068              		.loc 1 1572 45 view .LVU316
 1069 002c A2F10162 		sub	r2, r2, #135266304
 1070              	.LVL76:
 1071              		.loc 1 1572 65 view .LVU317
 1072 0030 120A     		lsrs	r2, r2, #8
 1073              	.LVL77:
 1074              		.loc 1 1572 71 view .LVU318
 1075 0032 1204     		lsls	r2, r2, #16
1571:Drivers/STM32H7xx_HAL_Driver/Src/stm32h7xx_hal_flash_ex.c ****                        (((SecureAreaEndAddr - FLASH_BANK2_BASE) >> 8) << FLASH_SCAR_SEC_AREA_END_Po
 1076              		.loc 1 1571 103 view .LVU319
 1077 0034 42EA1122 		orr	r2, r2, r1, lsr #8
1573:Drivers/STM32H7xx_HAL_Driver/Src/stm32h7xx_hal_flash_ex.c ****                        (SecureAreaConfig & FLASH_SCAR_DMES);
 1078              		.loc 1 1573 42 view .LVU320
 1079 0038 00F00040 		and	r0, r0, #-2147483648
 1080              	.LVL78:
1572:Drivers/STM32H7xx_HAL_Driver/Src/stm32h7xx_hal_flash_ex.c ****                        (((SecureAreaEndAddr - FLASH_BANK2_BASE) >> 8) << FLASH_SCAR_SEC_AREA_END_Po
 1081              		.loc 1 1572 103 view .LVU321
 1082 003c 1043     		orrs	r0, r0, r2
1571:Drivers/STM32H7xx_HAL_Driver/Src/stm32h7xx_hal_flash_ex.c ****                        (((SecureAreaEndAddr - FLASH_BANK2_BASE) >> 8) << FLASH_SCAR_SEC_AREA_END_Po
 1083              		.loc 1 1571 22 view .LVU322
 1084 003e 024B     		ldr	r3, .L89
 1085              	.LVL79:
1571:Drivers/STM32H7xx_HAL_Driver/Src/stm32h7xx_hal_flash_ex.c ****                        (((SecureAreaEndAddr - FLASH_BANK2_BASE) >> 8) << FLASH_SCAR_SEC_AREA_END_Po
 1086              		.loc 1 1571 22 view .LVU323
 1087 0040 C3F83401 		str	r0, [r3, #308]
 1088              	.LVL80:
 1089              	.L85:
1574:Drivers/STM32H7xx_HAL_Driver/Src/stm32h7xx_hal_flash_ex.c ****   }
1575:Drivers/STM32H7xx_HAL_Driver/Src/stm32h7xx_hal_flash_ex.c **** }
ARM GAS  C:\Users\chesn\AppData\Local\Temp\ccAfRyoq.s 			page 48


 1090              		.loc 1 1575 1 view .LVU324
 1091 0044 30BC     		pop	{r4, r5}
 1092              	.LCFI15:
 1093              		.cfi_restore 5
 1094              		.cfi_restore 4
 1095              		.cfi_def_cfa_offset 0
 1096 0046 7047     		bx	lr
 1097              	.L90:
 1098              		.align	2
 1099              	.L89:
 1100 0048 00200052 		.word	1375739904
 1101              		.cfi_endproc
 1102              	.LFE165:
 1104              		.section	.text.FLASH_OB_GetSecureArea,"ax",%progbits
 1105              		.align	1
 1106              		.syntax unified
 1107              		.thumb
 1108              		.thumb_func
 1109              		.fpu fpv5-d16
 1111              	FLASH_OB_GetSecureArea:
 1112              	.LVL81:
 1113              	.LFB166:
1576:Drivers/STM32H7xx_HAL_Driver/Src/stm32h7xx_hal_flash_ex.c **** 
1577:Drivers/STM32H7xx_HAL_Driver/Src/stm32h7xx_hal_flash_ex.c **** /**
1578:Drivers/STM32H7xx_HAL_Driver/Src/stm32h7xx_hal_flash_ex.c ****   * @brief  Get secure area configuration
1579:Drivers/STM32H7xx_HAL_Driver/Src/stm32h7xx_hal_flash_ex.c ****   * @param  SecureAreaConfig indicates if the secure area will be deleted or not
1580:Drivers/STM32H7xx_HAL_Driver/Src/stm32h7xx_hal_flash_ex.c ****   *         when RDP level decreased from Level 1 to Level 0 or during a mass erase.
1581:Drivers/STM32H7xx_HAL_Driver/Src/stm32h7xx_hal_flash_ex.c ****   * @param  SecureAreaStartAddr gives the secure area start address
1582:Drivers/STM32H7xx_HAL_Driver/Src/stm32h7xx_hal_flash_ex.c ****   * @param  SecureAreaEndAddr gives the secure area end address
1583:Drivers/STM32H7xx_HAL_Driver/Src/stm32h7xx_hal_flash_ex.c ****   * @param  Bank Specifies the Bank
1584:Drivers/STM32H7xx_HAL_Driver/Src/stm32h7xx_hal_flash_ex.c ****   * @retval None
1585:Drivers/STM32H7xx_HAL_Driver/Src/stm32h7xx_hal_flash_ex.c ****   */
1586:Drivers/STM32H7xx_HAL_Driver/Src/stm32h7xx_hal_flash_ex.c **** static void FLASH_OB_GetSecureArea(uint32_t *SecureAreaConfig, uint32_t *SecureAreaStartAddr, uint3
1587:Drivers/STM32H7xx_HAL_Driver/Src/stm32h7xx_hal_flash_ex.c **** {
 1114              		.loc 1 1587 1 is_stmt 1 view -0
 1115              		.cfi_startproc
 1116              		@ args = 0, pretend = 0, frame = 0
 1117              		@ frame_needed = 0, uses_anonymous_args = 0
 1118              		@ link register save eliminated.
 1119              		.loc 1 1587 1 is_stmt 0 view .LVU326
 1120 0000 30B4     		push	{r4, r5}
 1121              	.LCFI16:
 1122              		.cfi_def_cfa_offset 8
 1123              		.cfi_offset 4, -8
 1124              		.cfi_offset 5, -4
1588:Drivers/STM32H7xx_HAL_Driver/Src/stm32h7xx_hal_flash_ex.c ****   uint32_t regvalue = 0;
 1125              		.loc 1 1588 3 is_stmt 1 view .LVU327
 1126              	.LVL82:
1589:Drivers/STM32H7xx_HAL_Driver/Src/stm32h7xx_hal_flash_ex.c ****   uint32_t bankBase = 0;
 1127              		.loc 1 1589 3 view .LVU328
1590:Drivers/STM32H7xx_HAL_Driver/Src/stm32h7xx_hal_flash_ex.c **** 
1591:Drivers/STM32H7xx_HAL_Driver/Src/stm32h7xx_hal_flash_ex.c ****   /* Check Bank parameter value */
1592:Drivers/STM32H7xx_HAL_Driver/Src/stm32h7xx_hal_flash_ex.c ****   if((Bank & FLASH_BANK_BOTH) == FLASH_BANK_1)
 1128              		.loc 1 1592 3 view .LVU329
 1129              		.loc 1 1592 12 is_stmt 0 view .LVU330
 1130 0002 03F00303 		and	r3, r3, #3
 1131              	.LVL83:
ARM GAS  C:\Users\chesn\AppData\Local\Temp\ccAfRyoq.s 			page 49


 1132              		.loc 1 1592 5 view .LVU331
 1133 0006 012B     		cmp	r3, #1
 1134 0008 12D0     		beq	.L96
1589:Drivers/STM32H7xx_HAL_Driver/Src/stm32h7xx_hal_flash_ex.c ****   uint32_t bankBase = 0;
 1135              		.loc 1 1589 12 view .LVU332
 1136 000a 0025     		movs	r5, #0
1588:Drivers/STM32H7xx_HAL_Driver/Src/stm32h7xx_hal_flash_ex.c ****   uint32_t bankBase = 0;
 1137              		.loc 1 1588 12 view .LVU333
 1138 000c 2C46     		mov	r4, r5
 1139              	.LVL84:
 1140              	.L92:
1593:Drivers/STM32H7xx_HAL_Driver/Src/stm32h7xx_hal_flash_ex.c ****   {
1594:Drivers/STM32H7xx_HAL_Driver/Src/stm32h7xx_hal_flash_ex.c ****     regvalue = FLASH->SCAR_CUR1;
1595:Drivers/STM32H7xx_HAL_Driver/Src/stm32h7xx_hal_flash_ex.c ****     bankBase = FLASH_BANK1_BASE;
1596:Drivers/STM32H7xx_HAL_Driver/Src/stm32h7xx_hal_flash_ex.c ****   }
1597:Drivers/STM32H7xx_HAL_Driver/Src/stm32h7xx_hal_flash_ex.c **** 
1598:Drivers/STM32H7xx_HAL_Driver/Src/stm32h7xx_hal_flash_ex.c ****   if((Bank & FLASH_BANK_BOTH) == FLASH_BANK_2)
 1141              		.loc 1 1598 3 is_stmt 1 view .LVU334
 1142              		.loc 1 1598 5 is_stmt 0 view .LVU335
 1143 000e 022B     		cmp	r3, #2
 1144 0010 13D0     		beq	.L97
 1145              	.LVL85:
 1146              	.L93:
1599:Drivers/STM32H7xx_HAL_Driver/Src/stm32h7xx_hal_flash_ex.c ****   {
1600:Drivers/STM32H7xx_HAL_Driver/Src/stm32h7xx_hal_flash_ex.c ****     regvalue = FLASH->SCAR_CUR2;
1601:Drivers/STM32H7xx_HAL_Driver/Src/stm32h7xx_hal_flash_ex.c ****     bankBase = FLASH_BANK2_BASE;
1602:Drivers/STM32H7xx_HAL_Driver/Src/stm32h7xx_hal_flash_ex.c ****   }
1603:Drivers/STM32H7xx_HAL_Driver/Src/stm32h7xx_hal_flash_ex.c **** 
1604:Drivers/STM32H7xx_HAL_Driver/Src/stm32h7xx_hal_flash_ex.c ****   /* Get the secure area settings */
1605:Drivers/STM32H7xx_HAL_Driver/Src/stm32h7xx_hal_flash_ex.c ****   (*SecureAreaConfig) = (regvalue & FLASH_SCAR_DMES);
 1147              		.loc 1 1605 3 is_stmt 1 view .LVU336
 1148              		.loc 1 1605 35 is_stmt 0 view .LVU337
 1149 0012 04F00043 		and	r3, r4, #-2147483648
 1150              		.loc 1 1605 23 view .LVU338
 1151 0016 0360     		str	r3, [r0]
1606:Drivers/STM32H7xx_HAL_Driver/Src/stm32h7xx_hal_flash_ex.c ****   (*SecureAreaStartAddr) = ((regvalue & FLASH_SCAR_SEC_AREA_START) << 8) + bankBase;
 1152              		.loc 1 1606 3 is_stmt 1 view .LVU339
 1153              		.loc 1 1606 68 is_stmt 0 view .LVU340
 1154 0018 0B4B     		ldr	r3, .L98
 1155 001a 03EA0423 		and	r3, r3, r4, lsl #8
 1156              		.loc 1 1606 74 view .LVU341
 1157 001e 2B44     		add	r3, r3, r5
 1158              		.loc 1 1606 26 view .LVU342
 1159 0020 0B60     		str	r3, [r1]
1607:Drivers/STM32H7xx_HAL_Driver/Src/stm32h7xx_hal_flash_ex.c ****   (*SecureAreaEndAddr) = (regvalue & FLASH_SCAR_SEC_AREA_END) >> FLASH_SCAR_SEC_AREA_END_Pos;
 1160              		.loc 1 1607 3 is_stmt 1 view .LVU343
 1161              		.loc 1 1607 63 is_stmt 0 view .LVU344
 1162 0022 C4F30B44 		ubfx	r4, r4, #16, #12
 1163              	.LVL86:
1608:Drivers/STM32H7xx_HAL_Driver/Src/stm32h7xx_hal_flash_ex.c ****   (*SecureAreaEndAddr) = ((*SecureAreaEndAddr) << 8) + bankBase;
 1164              		.loc 1 1608 3 is_stmt 1 view .LVU345
 1165              		.loc 1 1608 54 is_stmt 0 view .LVU346
 1166 0026 05EB0424 		add	r4, r5, r4, lsl #8
 1167              		.loc 1 1608 24 view .LVU347
 1168 002a 1460     		str	r4, [r2]
1609:Drivers/STM32H7xx_HAL_Driver/Src/stm32h7xx_hal_flash_ex.c **** }
 1169              		.loc 1 1609 1 view .LVU348
ARM GAS  C:\Users\chesn\AppData\Local\Temp\ccAfRyoq.s 			page 50


 1170 002c 30BC     		pop	{r4, r5}
 1171              	.LCFI17:
 1172              		.cfi_remember_state
 1173              		.cfi_restore 5
 1174              		.cfi_restore 4
 1175              		.cfi_def_cfa_offset 0
 1176              	.LVL87:
 1177              		.loc 1 1609 1 view .LVU349
 1178 002e 7047     		bx	lr
 1179              	.LVL88:
 1180              	.L96:
 1181              	.LCFI18:
 1182              		.cfi_restore_state
1594:Drivers/STM32H7xx_HAL_Driver/Src/stm32h7xx_hal_flash_ex.c ****     bankBase = FLASH_BANK1_BASE;
 1183              		.loc 1 1594 5 is_stmt 1 view .LVU350
1594:Drivers/STM32H7xx_HAL_Driver/Src/stm32h7xx_hal_flash_ex.c ****     bankBase = FLASH_BANK1_BASE;
 1184              		.loc 1 1594 14 is_stmt 0 view .LVU351
 1185 0030 064C     		ldr	r4, .L98+4
 1186 0032 246B     		ldr	r4, [r4, #48]
 1187              	.LVL89:
1595:Drivers/STM32H7xx_HAL_Driver/Src/stm32h7xx_hal_flash_ex.c ****   }
 1188              		.loc 1 1595 5 is_stmt 1 view .LVU352
1595:Drivers/STM32H7xx_HAL_Driver/Src/stm32h7xx_hal_flash_ex.c ****   }
 1189              		.loc 1 1595 14 is_stmt 0 view .LVU353
 1190 0034 4FF00065 		mov	r5, #134217728
 1191 0038 E9E7     		b	.L92
 1192              	.LVL90:
 1193              	.L97:
1600:Drivers/STM32H7xx_HAL_Driver/Src/stm32h7xx_hal_flash_ex.c ****     bankBase = FLASH_BANK2_BASE;
 1194              		.loc 1 1600 5 is_stmt 1 view .LVU354
1600:Drivers/STM32H7xx_HAL_Driver/Src/stm32h7xx_hal_flash_ex.c ****     bankBase = FLASH_BANK2_BASE;
 1195              		.loc 1 1600 14 is_stmt 0 view .LVU355
 1196 003a 044B     		ldr	r3, .L98+4
 1197 003c D3F83041 		ldr	r4, [r3, #304]
 1198              	.LVL91:
1601:Drivers/STM32H7xx_HAL_Driver/Src/stm32h7xx_hal_flash_ex.c ****   }
 1199              		.loc 1 1601 5 is_stmt 1 view .LVU356
1601:Drivers/STM32H7xx_HAL_Driver/Src/stm32h7xx_hal_flash_ex.c ****   }
 1200              		.loc 1 1601 14 is_stmt 0 view .LVU357
 1201 0040 4FF00165 		mov	r5, #135266304
 1202 0044 E5E7     		b	.L93
 1203              	.L99:
 1204 0046 00BF     		.align	2
 1205              	.L98:
 1206 0048 00FF0F00 		.word	1048320
 1207 004c 00200052 		.word	1375739904
 1208              		.cfi_endproc
 1209              	.LFE166:
 1211              		.section	.text.FLASH_CRC_AddSector,"ax",%progbits
 1212              		.align	1
 1213              		.syntax unified
 1214              		.thumb
 1215              		.thumb_func
 1216              		.fpu fpv5-d16
 1218              	FLASH_CRC_AddSector:
 1219              	.LVL92:
 1220              	.LFB167:
ARM GAS  C:\Users\chesn\AppData\Local\Temp\ccAfRyoq.s 			page 51


1610:Drivers/STM32H7xx_HAL_Driver/Src/stm32h7xx_hal_flash_ex.c **** 
1611:Drivers/STM32H7xx_HAL_Driver/Src/stm32h7xx_hal_flash_ex.c **** /**
1612:Drivers/STM32H7xx_HAL_Driver/Src/stm32h7xx_hal_flash_ex.c ****   * @brief  Add a CRC sector to the list of sectors on which the CRC will be calculated
1613:Drivers/STM32H7xx_HAL_Driver/Src/stm32h7xx_hal_flash_ex.c ****   * @param  Sector Specifies the CRC sector number
1614:Drivers/STM32H7xx_HAL_Driver/Src/stm32h7xx_hal_flash_ex.c ****   * @param  Bank Specifies the Bank
1615:Drivers/STM32H7xx_HAL_Driver/Src/stm32h7xx_hal_flash_ex.c ****   * @retval None
1616:Drivers/STM32H7xx_HAL_Driver/Src/stm32h7xx_hal_flash_ex.c ****   */
1617:Drivers/STM32H7xx_HAL_Driver/Src/stm32h7xx_hal_flash_ex.c **** static void FLASH_CRC_AddSector(uint32_t Sector, uint32_t Bank)
1618:Drivers/STM32H7xx_HAL_Driver/Src/stm32h7xx_hal_flash_ex.c **** {
 1221              		.loc 1 1618 1 is_stmt 1 view -0
 1222              		.cfi_startproc
 1223              		@ args = 0, pretend = 0, frame = 0
 1224              		@ frame_needed = 0, uses_anonymous_args = 0
 1225              		@ link register save eliminated.
1619:Drivers/STM32H7xx_HAL_Driver/Src/stm32h7xx_hal_flash_ex.c ****   /* Check the parameters */
1620:Drivers/STM32H7xx_HAL_Driver/Src/stm32h7xx_hal_flash_ex.c ****   assert_param(IS_FLASH_SECTOR(Sector));
 1226              		.loc 1 1620 3 view .LVU359
1621:Drivers/STM32H7xx_HAL_Driver/Src/stm32h7xx_hal_flash_ex.c **** 
1622:Drivers/STM32H7xx_HAL_Driver/Src/stm32h7xx_hal_flash_ex.c ****   if (Bank == FLASH_BANK_1)
 1227              		.loc 1 1622 3 view .LVU360
 1228              		.loc 1 1622 6 is_stmt 0 view .LVU361
 1229 0000 0129     		cmp	r1, #1
 1230 0002 0ED0     		beq	.L103
1623:Drivers/STM32H7xx_HAL_Driver/Src/stm32h7xx_hal_flash_ex.c ****   {
1624:Drivers/STM32H7xx_HAL_Driver/Src/stm32h7xx_hal_flash_ex.c ****     /* Clear CRC sector */
1625:Drivers/STM32H7xx_HAL_Driver/Src/stm32h7xx_hal_flash_ex.c ****     FLASH->CRCCR1 &= (~FLASH_CRCCR_CRC_SECT);
1626:Drivers/STM32H7xx_HAL_Driver/Src/stm32h7xx_hal_flash_ex.c **** 
1627:Drivers/STM32H7xx_HAL_Driver/Src/stm32h7xx_hal_flash_ex.c ****     /* Select CRC Sector and activate ADD_SECT bit */
1628:Drivers/STM32H7xx_HAL_Driver/Src/stm32h7xx_hal_flash_ex.c ****     FLASH->CRCCR1 |= Sector | FLASH_CRCCR_ADD_SECT;
1629:Drivers/STM32H7xx_HAL_Driver/Src/stm32h7xx_hal_flash_ex.c ****   }
1630:Drivers/STM32H7xx_HAL_Driver/Src/stm32h7xx_hal_flash_ex.c ****   else
1631:Drivers/STM32H7xx_HAL_Driver/Src/stm32h7xx_hal_flash_ex.c ****   {
1632:Drivers/STM32H7xx_HAL_Driver/Src/stm32h7xx_hal_flash_ex.c ****     /* Clear CRC sector */
1633:Drivers/STM32H7xx_HAL_Driver/Src/stm32h7xx_hal_flash_ex.c ****     FLASH->CRCCR2 &= (~FLASH_CRCCR_CRC_SECT);
 1231              		.loc 1 1633 5 is_stmt 1 view .LVU362
 1232              		.loc 1 1633 19 is_stmt 0 view .LVU363
 1233 0004 0C4A     		ldr	r2, .L104
 1234 0006 D2F85031 		ldr	r3, [r2, #336]
 1235 000a 23F00703 		bic	r3, r3, #7
 1236 000e C2F85031 		str	r3, [r2, #336]
1634:Drivers/STM32H7xx_HAL_Driver/Src/stm32h7xx_hal_flash_ex.c **** 
1635:Drivers/STM32H7xx_HAL_Driver/Src/stm32h7xx_hal_flash_ex.c ****     /* Select CRC Sector and activate ADD_SECT bit */
1636:Drivers/STM32H7xx_HAL_Driver/Src/stm32h7xx_hal_flash_ex.c ****     FLASH->CRCCR2 |= Sector | FLASH_CRCCR_ADD_SECT;
 1237              		.loc 1 1636 5 is_stmt 1 view .LVU364
 1238              		.loc 1 1636 19 is_stmt 0 view .LVU365
 1239 0012 D2F85031 		ldr	r3, [r2, #336]
 1240 0016 1843     		orrs	r0, r0, r3
 1241              	.LVL93:
 1242              		.loc 1 1636 19 view .LVU366
 1243 0018 40F40070 		orr	r0, r0, #512
 1244 001c C2F85001 		str	r0, [r2, #336]
1637:Drivers/STM32H7xx_HAL_Driver/Src/stm32h7xx_hal_flash_ex.c ****   }
1638:Drivers/STM32H7xx_HAL_Driver/Src/stm32h7xx_hal_flash_ex.c **** }
 1245              		.loc 1 1638 1 view .LVU367
 1246 0020 7047     		bx	lr
 1247              	.LVL94:
 1248              	.L103:
ARM GAS  C:\Users\chesn\AppData\Local\Temp\ccAfRyoq.s 			page 52


1625:Drivers/STM32H7xx_HAL_Driver/Src/stm32h7xx_hal_flash_ex.c **** 
 1249              		.loc 1 1625 5 is_stmt 1 view .LVU368
1625:Drivers/STM32H7xx_HAL_Driver/Src/stm32h7xx_hal_flash_ex.c **** 
 1250              		.loc 1 1625 19 is_stmt 0 view .LVU369
 1251 0022 054A     		ldr	r2, .L104
 1252 0024 136D     		ldr	r3, [r2, #80]
 1253 0026 23F00703 		bic	r3, r3, #7
 1254 002a 1365     		str	r3, [r2, #80]
1628:Drivers/STM32H7xx_HAL_Driver/Src/stm32h7xx_hal_flash_ex.c ****   }
 1255              		.loc 1 1628 5 is_stmt 1 view .LVU370
1628:Drivers/STM32H7xx_HAL_Driver/Src/stm32h7xx_hal_flash_ex.c ****   }
 1256              		.loc 1 1628 19 is_stmt 0 view .LVU371
 1257 002c 136D     		ldr	r3, [r2, #80]
 1258 002e 1843     		orrs	r0, r0, r3
 1259              	.LVL95:
1628:Drivers/STM32H7xx_HAL_Driver/Src/stm32h7xx_hal_flash_ex.c ****   }
 1260              		.loc 1 1628 19 view .LVU372
 1261 0030 40F40070 		orr	r0, r0, #512
 1262 0034 1065     		str	r0, [r2, #80]
 1263 0036 7047     		bx	lr
 1264              	.L105:
 1265              		.align	2
 1266              	.L104:
 1267 0038 00200052 		.word	1375739904
 1268              		.cfi_endproc
 1269              	.LFE167:
 1271              		.section	.text.FLASH_CRC_SelectAddress,"ax",%progbits
 1272              		.align	1
 1273              		.syntax unified
 1274              		.thumb
 1275              		.thumb_func
 1276              		.fpu fpv5-d16
 1278              	FLASH_CRC_SelectAddress:
 1279              	.LVL96:
 1280              	.LFB168:
1639:Drivers/STM32H7xx_HAL_Driver/Src/stm32h7xx_hal_flash_ex.c **** 
1640:Drivers/STM32H7xx_HAL_Driver/Src/stm32h7xx_hal_flash_ex.c **** /**
1641:Drivers/STM32H7xx_HAL_Driver/Src/stm32h7xx_hal_flash_ex.c ****   * @brief  Select CRC start and end memory addresses on which the CRC will be calculated
1642:Drivers/STM32H7xx_HAL_Driver/Src/stm32h7xx_hal_flash_ex.c ****   * @param  CRCStartAddr Specifies the CRC start address
1643:Drivers/STM32H7xx_HAL_Driver/Src/stm32h7xx_hal_flash_ex.c ****   * @param  CRCEndAddr Specifies the CRC end address
1644:Drivers/STM32H7xx_HAL_Driver/Src/stm32h7xx_hal_flash_ex.c ****   * @param  Bank Specifies the Bank
1645:Drivers/STM32H7xx_HAL_Driver/Src/stm32h7xx_hal_flash_ex.c ****   * @retval None
1646:Drivers/STM32H7xx_HAL_Driver/Src/stm32h7xx_hal_flash_ex.c ****   */
1647:Drivers/STM32H7xx_HAL_Driver/Src/stm32h7xx_hal_flash_ex.c **** static void FLASH_CRC_SelectAddress(uint32_t CRCStartAddr, uint32_t CRCEndAddr, uint32_t Bank)
1648:Drivers/STM32H7xx_HAL_Driver/Src/stm32h7xx_hal_flash_ex.c **** {
 1281              		.loc 1 1648 1 is_stmt 1 view -0
 1282              		.cfi_startproc
 1283              		@ args = 0, pretend = 0, frame = 0
 1284              		@ frame_needed = 0, uses_anonymous_args = 0
 1285              		@ link register save eliminated.
1649:Drivers/STM32H7xx_HAL_Driver/Src/stm32h7xx_hal_flash_ex.c ****   if (Bank == FLASH_BANK_1)
 1286              		.loc 1 1649 3 view .LVU374
 1287              		.loc 1 1649 6 is_stmt 0 view .LVU375
 1288 0000 012A     		cmp	r2, #1
 1289 0002 05D0     		beq	.L109
1650:Drivers/STM32H7xx_HAL_Driver/Src/stm32h7xx_hal_flash_ex.c ****   {
1651:Drivers/STM32H7xx_HAL_Driver/Src/stm32h7xx_hal_flash_ex.c ****     assert_param(IS_FLASH_PROGRAM_ADDRESS_BANK1(CRCStartAddr));
ARM GAS  C:\Users\chesn\AppData\Local\Temp\ccAfRyoq.s 			page 53


1652:Drivers/STM32H7xx_HAL_Driver/Src/stm32h7xx_hal_flash_ex.c ****     assert_param(IS_FLASH_PROGRAM_ADDRESS_BANK1(CRCEndAddr));
1653:Drivers/STM32H7xx_HAL_Driver/Src/stm32h7xx_hal_flash_ex.c **** 
1654:Drivers/STM32H7xx_HAL_Driver/Src/stm32h7xx_hal_flash_ex.c ****     /* Write CRC Start and End addresses */
1655:Drivers/STM32H7xx_HAL_Driver/Src/stm32h7xx_hal_flash_ex.c ****     FLASH->CRCSADD1 = CRCStartAddr;
1656:Drivers/STM32H7xx_HAL_Driver/Src/stm32h7xx_hal_flash_ex.c ****     FLASH->CRCEADD1 = CRCEndAddr;
1657:Drivers/STM32H7xx_HAL_Driver/Src/stm32h7xx_hal_flash_ex.c ****   }
1658:Drivers/STM32H7xx_HAL_Driver/Src/stm32h7xx_hal_flash_ex.c ****   else
1659:Drivers/STM32H7xx_HAL_Driver/Src/stm32h7xx_hal_flash_ex.c ****   {
1660:Drivers/STM32H7xx_HAL_Driver/Src/stm32h7xx_hal_flash_ex.c ****     assert_param(IS_FLASH_PROGRAM_ADDRESS_BANK2(CRCStartAddr));
 1290              		.loc 1 1660 5 is_stmt 1 view .LVU376
1661:Drivers/STM32H7xx_HAL_Driver/Src/stm32h7xx_hal_flash_ex.c ****     assert_param(IS_FLASH_PROGRAM_ADDRESS_BANK2(CRCEndAddr));
 1291              		.loc 1 1661 5 view .LVU377
1662:Drivers/STM32H7xx_HAL_Driver/Src/stm32h7xx_hal_flash_ex.c **** 
1663:Drivers/STM32H7xx_HAL_Driver/Src/stm32h7xx_hal_flash_ex.c ****     /* Write CRC Start and End addresses */
1664:Drivers/STM32H7xx_HAL_Driver/Src/stm32h7xx_hal_flash_ex.c ****     FLASH->CRCSADD2 = CRCStartAddr;
 1292              		.loc 1 1664 5 view .LVU378
 1293              		.loc 1 1664 21 is_stmt 0 view .LVU379
 1294 0004 044B     		ldr	r3, .L110
 1295 0006 C3F85401 		str	r0, [r3, #340]
1665:Drivers/STM32H7xx_HAL_Driver/Src/stm32h7xx_hal_flash_ex.c ****     FLASH->CRCEADD2 = CRCEndAddr;
 1296              		.loc 1 1665 5 is_stmt 1 view .LVU380
 1297              		.loc 1 1665 21 is_stmt 0 view .LVU381
 1298 000a C3F85811 		str	r1, [r3, #344]
1666:Drivers/STM32H7xx_HAL_Driver/Src/stm32h7xx_hal_flash_ex.c ****   }
1667:Drivers/STM32H7xx_HAL_Driver/Src/stm32h7xx_hal_flash_ex.c **** }
 1299              		.loc 1 1667 1 view .LVU382
 1300 000e 7047     		bx	lr
 1301              	.L109:
1651:Drivers/STM32H7xx_HAL_Driver/Src/stm32h7xx_hal_flash_ex.c ****     assert_param(IS_FLASH_PROGRAM_ADDRESS_BANK1(CRCEndAddr));
 1302              		.loc 1 1651 5 is_stmt 1 view .LVU383
1652:Drivers/STM32H7xx_HAL_Driver/Src/stm32h7xx_hal_flash_ex.c **** 
 1303              		.loc 1 1652 5 view .LVU384
1655:Drivers/STM32H7xx_HAL_Driver/Src/stm32h7xx_hal_flash_ex.c ****     FLASH->CRCEADD1 = CRCEndAddr;
 1304              		.loc 1 1655 5 view .LVU385
1655:Drivers/STM32H7xx_HAL_Driver/Src/stm32h7xx_hal_flash_ex.c ****     FLASH->CRCEADD1 = CRCEndAddr;
 1305              		.loc 1 1655 21 is_stmt 0 view .LVU386
 1306 0010 014B     		ldr	r3, .L110
 1307 0012 5865     		str	r0, [r3, #84]
1656:Drivers/STM32H7xx_HAL_Driver/Src/stm32h7xx_hal_flash_ex.c ****   }
 1308              		.loc 1 1656 5 is_stmt 1 view .LVU387
1656:Drivers/STM32H7xx_HAL_Driver/Src/stm32h7xx_hal_flash_ex.c ****   }
 1309              		.loc 1 1656 21 is_stmt 0 view .LVU388
 1310 0014 9965     		str	r1, [r3, #88]
 1311 0016 7047     		bx	lr
 1312              	.L111:
 1313              		.align	2
 1314              	.L110:
 1315 0018 00200052 		.word	1375739904
 1316              		.cfi_endproc
 1317              	.LFE168:
 1319              		.section	.text.HAL_FLASHEx_OBProgram,"ax",%progbits
 1320              		.align	1
 1321              		.global	HAL_FLASHEx_OBProgram
 1322              		.syntax unified
 1323              		.thumb
 1324              		.thumb_func
 1325              		.fpu fpv5-d16
ARM GAS  C:\Users\chesn\AppData\Local\Temp\ccAfRyoq.s 			page 54


 1327              	HAL_FLASHEx_OBProgram:
 1328              	.LVL97:
 1329              	.LFB143:
 387:Drivers/STM32H7xx_HAL_Driver/Src/stm32h7xx_hal_flash_ex.c ****   HAL_StatusTypeDef status;
 1330              		.loc 1 387 1 is_stmt 1 view -0
 1331              		.cfi_startproc
 1332              		@ args = 0, pretend = 0, frame = 0
 1333              		@ frame_needed = 0, uses_anonymous_args = 0
 387:Drivers/STM32H7xx_HAL_Driver/Src/stm32h7xx_hal_flash_ex.c ****   HAL_StatusTypeDef status;
 1334              		.loc 1 387 1 is_stmt 0 view .LVU390
 1335 0000 38B5     		push	{r3, r4, r5, lr}
 1336              	.LCFI19:
 1337              		.cfi_def_cfa_offset 16
 1338              		.cfi_offset 3, -16
 1339              		.cfi_offset 4, -12
 1340              		.cfi_offset 5, -8
 1341              		.cfi_offset 14, -4
 388:Drivers/STM32H7xx_HAL_Driver/Src/stm32h7xx_hal_flash_ex.c **** 
 1342              		.loc 1 388 3 is_stmt 1 view .LVU391
 391:Drivers/STM32H7xx_HAL_Driver/Src/stm32h7xx_hal_flash_ex.c **** 
 1343              		.loc 1 391 3 view .LVU392
 394:Drivers/STM32H7xx_HAL_Driver/Src/stm32h7xx_hal_flash_ex.c **** 
 1344              		.loc 1 394 3 view .LVU393
 394:Drivers/STM32H7xx_HAL_Driver/Src/stm32h7xx_hal_flash_ex.c **** 
 1345              		.loc 1 394 3 view .LVU394
 1346 0002 354B     		ldr	r3, .L133
 1347 0004 1B7D     		ldrb	r3, [r3, #20]	@ zero_extendqisi2
 1348 0006 012B     		cmp	r3, #1
 1349 0008 63D0     		beq	.L122
 1350 000a 0446     		mov	r4, r0
 394:Drivers/STM32H7xx_HAL_Driver/Src/stm32h7xx_hal_flash_ex.c **** 
 1351              		.loc 1 394 3 discriminator 2 view .LVU395
 1352 000c 324B     		ldr	r3, .L133
 1353 000e 0121     		movs	r1, #1
 1354 0010 1975     		strb	r1, [r3, #20]
 394:Drivers/STM32H7xx_HAL_Driver/Src/stm32h7xx_hal_flash_ex.c **** 
 1355              		.loc 1 394 3 discriminator 2 view .LVU396
 397:Drivers/STM32H7xx_HAL_Driver/Src/stm32h7xx_hal_flash_ex.c **** 
 1356              		.loc 1 397 3 discriminator 2 view .LVU397
 397:Drivers/STM32H7xx_HAL_Driver/Src/stm32h7xx_hal_flash_ex.c **** 
 1357              		.loc 1 397 20 is_stmt 0 discriminator 2 view .LVU398
 1358 0012 0022     		movs	r2, #0
 1359 0014 9A61     		str	r2, [r3, #24]
 400:Drivers/STM32H7xx_HAL_Driver/Src/stm32h7xx_hal_flash_ex.c ****   {
 1360              		.loc 1 400 3 is_stmt 1 discriminator 2 view .LVU399
 400:Drivers/STM32H7xx_HAL_Driver/Src/stm32h7xx_hal_flash_ex.c ****   {
 1361              		.loc 1 400 6 is_stmt 0 discriminator 2 view .LVU400
 1362 0016 4CF25030 		movw	r0, #50000
 1363              	.LVL98:
 400:Drivers/STM32H7xx_HAL_Driver/Src/stm32h7xx_hal_flash_ex.c ****   {
 1364              		.loc 1 400 6 discriminator 2 view .LVU401
 1365 001a FFF7FEFF 		bl	FLASH_WaitForLastOperation
 1366              	.LVL99:
 400:Drivers/STM32H7xx_HAL_Driver/Src/stm32h7xx_hal_flash_ex.c ****   {
 1367              		.loc 1 400 5 discriminator 2 view .LVU402
 1368 001e 28B1     		cbz	r0, .L126
 402:Drivers/STM32H7xx_HAL_Driver/Src/stm32h7xx_hal_flash_ex.c ****   }
ARM GAS  C:\Users\chesn\AppData\Local\Temp\ccAfRyoq.s 			page 55


 1369              		.loc 1 402 12 view .LVU403
 1370 0020 0125     		movs	r5, #1
 1371              	.L114:
 497:Drivers/STM32H7xx_HAL_Driver/Src/stm32h7xx_hal_flash_ex.c **** 
 1372              		.loc 1 497 3 is_stmt 1 view .LVU404
 497:Drivers/STM32H7xx_HAL_Driver/Src/stm32h7xx_hal_flash_ex.c **** 
 1373              		.loc 1 497 3 view .LVU405
 1374 0022 2D4B     		ldr	r3, .L133
 1375 0024 0022     		movs	r2, #0
 1376 0026 1A75     		strb	r2, [r3, #20]
 497:Drivers/STM32H7xx_HAL_Driver/Src/stm32h7xx_hal_flash_ex.c **** 
 1377              		.loc 1 497 3 view .LVU406
 499:Drivers/STM32H7xx_HAL_Driver/Src/stm32h7xx_hal_flash_ex.c **** }
 1378              		.loc 1 499 3 view .LVU407
 1379              	.LVL100:
 1380              	.L113:
 500:Drivers/STM32H7xx_HAL_Driver/Src/stm32h7xx_hal_flash_ex.c **** 
 1381              		.loc 1 500 1 is_stmt 0 view .LVU408
 1382 0028 2846     		mov	r0, r5
 1383 002a 38BD     		pop	{r3, r4, r5, pc}
 1384              	.LVL101:
 1385              	.L126:
 404:Drivers/STM32H7xx_HAL_Driver/Src/stm32h7xx_hal_flash_ex.c ****   {
 1386              		.loc 1 404 8 is_stmt 1 view .LVU409
 404:Drivers/STM32H7xx_HAL_Driver/Src/stm32h7xx_hal_flash_ex.c ****   {
 1387              		.loc 1 404 11 is_stmt 0 view .LVU410
 1388 002c 0221     		movs	r1, #2
 1389 002e 4CF25030 		movw	r0, #50000
 1390 0032 FFF7FEFF 		bl	FLASH_WaitForLastOperation
 1391              	.LVL102:
 404:Drivers/STM32H7xx_HAL_Driver/Src/stm32h7xx_hal_flash_ex.c ****   {
 1392              		.loc 1 404 10 view .LVU411
 1393 0036 0546     		mov	r5, r0
 1394 0038 0028     		cmp	r0, #0
 1395 003a 48D1     		bne	.L124
 410:Drivers/STM32H7xx_HAL_Driver/Src/stm32h7xx_hal_flash_ex.c ****   }
 1396              		.loc 1 410 5 is_stmt 1 view .LVU412
 1397              	.LVL103:
 413:Drivers/STM32H7xx_HAL_Driver/Src/stm32h7xx_hal_flash_ex.c ****   {
 1398              		.loc 1 413 3 view .LVU413
 416:Drivers/STM32H7xx_HAL_Driver/Src/stm32h7xx_hal_flash_ex.c ****     {
 1399              		.loc 1 416 5 view .LVU414
 416:Drivers/STM32H7xx_HAL_Driver/Src/stm32h7xx_hal_flash_ex.c ****     {
 1400              		.loc 1 416 16 is_stmt 0 view .LVU415
 1401 003c 2368     		ldr	r3, [r4]
 416:Drivers/STM32H7xx_HAL_Driver/Src/stm32h7xx_hal_flash_ex.c ****     {
 1402              		.loc 1 416 7 view .LVU416
 1403 003e 13F0010F 		tst	r3, #1
 1404 0042 06D0     		beq	.L115
 418:Drivers/STM32H7xx_HAL_Driver/Src/stm32h7xx_hal_flash_ex.c **** 
 1405              		.loc 1 418 7 is_stmt 1 view .LVU417
 420:Drivers/STM32H7xx_HAL_Driver/Src/stm32h7xx_hal_flash_ex.c ****       {
 1406              		.loc 1 420 7 view .LVU418
 420:Drivers/STM32H7xx_HAL_Driver/Src/stm32h7xx_hal_flash_ex.c ****       {
 1407              		.loc 1 420 17 is_stmt 0 view .LVU419
 1408 0044 6368     		ldr	r3, [r4, #4]
 420:Drivers/STM32H7xx_HAL_Driver/Src/stm32h7xx_hal_flash_ex.c ****       {
ARM GAS  C:\Users\chesn\AppData\Local\Temp\ccAfRyoq.s 			page 56


 1409              		.loc 1 420 9 view .LVU420
 1410 0046 012B     		cmp	r3, #1
 1411 0048 22D0     		beq	.L127
 428:Drivers/STM32H7xx_HAL_Driver/Src/stm32h7xx_hal_flash_ex.c ****       }
 1412              		.loc 1 428 9 is_stmt 1 view .LVU421
 1413 004a E169     		ldr	r1, [r4, #28]
 1414 004c A068     		ldr	r0, [r4, #8]
 1415 004e FFF7FEFF 		bl	FLASH_OB_DisableWRP
 1416              	.LVL104:
 1417              	.L115:
 433:Drivers/STM32H7xx_HAL_Driver/Src/stm32h7xx_hal_flash_ex.c ****     {
 1418              		.loc 1 433 5 view .LVU422
 433:Drivers/STM32H7xx_HAL_Driver/Src/stm32h7xx_hal_flash_ex.c ****     {
 1419              		.loc 1 433 16 is_stmt 0 view .LVU423
 1420 0052 2368     		ldr	r3, [r4]
 433:Drivers/STM32H7xx_HAL_Driver/Src/stm32h7xx_hal_flash_ex.c ****     {
 1421              		.loc 1 433 7 view .LVU424
 1422 0054 13F0020F 		tst	r3, #2
 1423 0058 1FD1     		bne	.L128
 1424              	.L117:
 440:Drivers/STM32H7xx_HAL_Driver/Src/stm32h7xx_hal_flash_ex.c ****     {
 1425              		.loc 1 440 5 is_stmt 1 view .LVU425
 440:Drivers/STM32H7xx_HAL_Driver/Src/stm32h7xx_hal_flash_ex.c ****     {
 1426              		.loc 1 440 16 is_stmt 0 view .LVU426
 1427 005a 2368     		ldr	r3, [r4]
 440:Drivers/STM32H7xx_HAL_Driver/Src/stm32h7xx_hal_flash_ex.c ****     {
 1428              		.loc 1 440 7 view .LVU427
 1429 005c 13F0040F 		tst	r3, #4
 1430 0060 1FD1     		bne	.L129
 1431              	.L118:
 447:Drivers/STM32H7xx_HAL_Driver/Src/stm32h7xx_hal_flash_ex.c ****     {
 1432              		.loc 1 447 5 is_stmt 1 view .LVU428
 447:Drivers/STM32H7xx_HAL_Driver/Src/stm32h7xx_hal_flash_ex.c ****     {
 1433              		.loc 1 447 16 is_stmt 0 view .LVU429
 1434 0062 2368     		ldr	r3, [r4]
 447:Drivers/STM32H7xx_HAL_Driver/Src/stm32h7xx_hal_flash_ex.c ****     {
 1435              		.loc 1 447 7 view .LVU430
 1436 0064 13F0080F 		tst	r3, #8
 1437 0068 20D1     		bne	.L130
 1438              	.L119:
 456:Drivers/STM32H7xx_HAL_Driver/Src/stm32h7xx_hal_flash_ex.c ****     {
 1439              		.loc 1 456 5 is_stmt 1 view .LVU431
 456:Drivers/STM32H7xx_HAL_Driver/Src/stm32h7xx_hal_flash_ex.c ****     {
 1440              		.loc 1 456 16 is_stmt 0 view .LVU432
 1441 006a 2368     		ldr	r3, [r4]
 456:Drivers/STM32H7xx_HAL_Driver/Src/stm32h7xx_hal_flash_ex.c ****     {
 1442              		.loc 1 456 7 view .LVU433
 1443 006c 13F0100F 		tst	r3, #16
 1444 0070 23D1     		bne	.L131
 1445              	.L120:
 475:Drivers/STM32H7xx_HAL_Driver/Src/stm32h7xx_hal_flash_ex.c ****     {
 1446              		.loc 1 475 5 is_stmt 1 view .LVU434
 475:Drivers/STM32H7xx_HAL_Driver/Src/stm32h7xx_hal_flash_ex.c ****     {
 1447              		.loc 1 475 16 is_stmt 0 view .LVU435
 1448 0072 2368     		ldr	r3, [r4]
 475:Drivers/STM32H7xx_HAL_Driver/Src/stm32h7xx_hal_flash_ex.c ****     {
 1449              		.loc 1 475 7 view .LVU436
ARM GAS  C:\Users\chesn\AppData\Local\Temp\ccAfRyoq.s 			page 57


 1450 0074 13F0400F 		tst	r3, #64
 1451 0078 23D1     		bne	.L132
 1452              	.L121:
 482:Drivers/STM32H7xx_HAL_Driver/Src/stm32h7xx_hal_flash_ex.c ****     {
 1453              		.loc 1 482 5 is_stmt 1 view .LVU437
 482:Drivers/STM32H7xx_HAL_Driver/Src/stm32h7xx_hal_flash_ex.c ****     {
 1454              		.loc 1 482 16 is_stmt 0 view .LVU438
 1455 007a 2368     		ldr	r3, [r4]
 482:Drivers/STM32H7xx_HAL_Driver/Src/stm32h7xx_hal_flash_ex.c ****     {
 1456              		.loc 1 482 7 view .LVU439
 1457 007c 13F0200F 		tst	r3, #32
 1458 0080 CFD0     		beq	.L114
 484:Drivers/STM32H7xx_HAL_Driver/Src/stm32h7xx_hal_flash_ex.c ****     }
 1459              		.loc 1 484 7 is_stmt 1 view .LVU440
 1460 0082 E369     		ldr	r3, [r4, #28]
 1461 0084 226C     		ldr	r2, [r4, #64]
 1462 0086 E16B     		ldr	r1, [r4, #60]
 1463 0088 A06B     		ldr	r0, [r4, #56]
 1464 008a FFF7FEFF 		bl	FLASH_OB_SecureAreaConfig
 1465              	.LVL105:
 1466 008e C8E7     		b	.L114
 1467              	.L127:
 423:Drivers/STM32H7xx_HAL_Driver/Src/stm32h7xx_hal_flash_ex.c ****       }
 1468              		.loc 1 423 9 view .LVU441
 1469 0090 E169     		ldr	r1, [r4, #28]
 1470 0092 A068     		ldr	r0, [r4, #8]
 1471 0094 FFF7FEFF 		bl	FLASH_OB_EnableWRP
 1472              	.LVL106:
 1473 0098 DBE7     		b	.L115
 1474              	.L128:
 436:Drivers/STM32H7xx_HAL_Driver/Src/stm32h7xx_hal_flash_ex.c ****     }
 1475              		.loc 1 436 7 view .LVU442
 1476 009a E068     		ldr	r0, [r4, #12]
 1477 009c FFF7FEFF 		bl	FLASH_OB_RDPConfig
 1478              	.LVL107:
 1479 00a0 DBE7     		b	.L117
 1480              	.L129:
 443:Drivers/STM32H7xx_HAL_Driver/Src/stm32h7xx_hal_flash_ex.c ****     }
 1481              		.loc 1 443 7 view .LVU443
 1482 00a2 A169     		ldr	r1, [r4, #24]
 1483 00a4 6069     		ldr	r0, [r4, #20]
 1484 00a6 FFF7FEFF 		bl	FLASH_OB_UserConfig
 1485              	.LVL108:
 1486 00aa DAE7     		b	.L118
 1487              	.L130:
 449:Drivers/STM32H7xx_HAL_Driver/Src/stm32h7xx_hal_flash_ex.c **** 
 1488              		.loc 1 449 7 view .LVU444
 452:Drivers/STM32H7xx_HAL_Driver/Src/stm32h7xx_hal_flash_ex.c ****     }
 1489              		.loc 1 452 7 view .LVU445
 1490 00ac E369     		ldr	r3, [r4, #28]
 1491 00ae A26A     		ldr	r2, [r4, #40]
 1492 00b0 616A     		ldr	r1, [r4, #36]
 1493 00b2 206A     		ldr	r0, [r4, #32]
 1494 00b4 FFF7FEFF 		bl	FLASH_OB_PCROPConfig
 1495              	.LVL109:
 1496 00b8 D7E7     		b	.L119
 1497              	.L131:
ARM GAS  C:\Users\chesn\AppData\Local\Temp\ccAfRyoq.s 			page 58


 458:Drivers/STM32H7xx_HAL_Driver/Src/stm32h7xx_hal_flash_ex.c ****     }
 1498              		.loc 1 458 7 view .LVU446
 1499 00ba 2069     		ldr	r0, [r4, #16]
 1500 00bc FFF7FEFF 		bl	FLASH_OB_BOR_LevelConfig
 1501              	.LVL110:
 1502 00c0 D7E7     		b	.L120
 1503              	.L132:
 477:Drivers/STM32H7xx_HAL_Driver/Src/stm32h7xx_hal_flash_ex.c ****     }
 1504              		.loc 1 477 7 view .LVU447
 1505 00c2 626B     		ldr	r2, [r4, #52]
 1506 00c4 216B     		ldr	r1, [r4, #48]
 1507 00c6 E06A     		ldr	r0, [r4, #44]
 1508 00c8 FFF7FEFF 		bl	FLASH_OB_BootAddConfig
 1509              	.LVL111:
 1510 00cc D5E7     		b	.L121
 1511              	.LVL112:
 1512              	.L124:
 406:Drivers/STM32H7xx_HAL_Driver/Src/stm32h7xx_hal_flash_ex.c ****   }
 1513              		.loc 1 406 12 is_stmt 0 view .LVU448
 1514 00ce 0125     		movs	r5, #1
 1515 00d0 A7E7     		b	.L114
 1516              	.LVL113:
 1517              	.L122:
 394:Drivers/STM32H7xx_HAL_Driver/Src/stm32h7xx_hal_flash_ex.c **** 
 1518              		.loc 1 394 3 view .LVU449
 1519 00d2 0225     		movs	r5, #2
 1520 00d4 A8E7     		b	.L113
 1521              	.L134:
 1522 00d6 00BF     		.align	2
 1523              	.L133:
 1524 00d8 00000000 		.word	pFlash
 1525              		.cfi_endproc
 1526              	.LFE143:
 1528              		.section	.text.HAL_FLASHEx_OBGetConfig,"ax",%progbits
 1529              		.align	1
 1530              		.global	HAL_FLASHEx_OBGetConfig
 1531              		.syntax unified
 1532              		.thumb
 1533              		.thumb_func
 1534              		.fpu fpv5-d16
 1536              	HAL_FLASHEx_OBGetConfig:
 1537              	.LVL114:
 1538              	.LFB144:
 512:Drivers/STM32H7xx_HAL_Driver/Src/stm32h7xx_hal_flash_ex.c ****   pOBInit->OptionType = (OPTIONBYTE_USER | OPTIONBYTE_RDP | OPTIONBYTE_BOR);
 1539              		.loc 1 512 1 is_stmt 1 view -0
 1540              		.cfi_startproc
 1541              		@ args = 0, pretend = 0, frame = 0
 1542              		@ frame_needed = 0, uses_anonymous_args = 0
 512:Drivers/STM32H7xx_HAL_Driver/Src/stm32h7xx_hal_flash_ex.c ****   pOBInit->OptionType = (OPTIONBYTE_USER | OPTIONBYTE_RDP | OPTIONBYTE_BOR);
 1543              		.loc 1 512 1 is_stmt 0 view .LVU451
 1544 0000 10B5     		push	{r4, lr}
 1545              	.LCFI20:
 1546              		.cfi_def_cfa_offset 8
 1547              		.cfi_offset 4, -8
 1548              		.cfi_offset 14, -4
 1549 0002 0446     		mov	r4, r0
 513:Drivers/STM32H7xx_HAL_Driver/Src/stm32h7xx_hal_flash_ex.c **** 
ARM GAS  C:\Users\chesn\AppData\Local\Temp\ccAfRyoq.s 			page 59


 1550              		.loc 1 513 3 is_stmt 1 view .LVU452
 513:Drivers/STM32H7xx_HAL_Driver/Src/stm32h7xx_hal_flash_ex.c **** 
 1551              		.loc 1 513 23 is_stmt 0 view .LVU453
 1552 0004 1623     		movs	r3, #22
 1553 0006 0360     		str	r3, [r0]
 516:Drivers/STM32H7xx_HAL_Driver/Src/stm32h7xx_hal_flash_ex.c **** 
 1554              		.loc 1 516 3 is_stmt 1 view .LVU454
 516:Drivers/STM32H7xx_HAL_Driver/Src/stm32h7xx_hal_flash_ex.c **** 
 1555              		.loc 1 516 23 is_stmt 0 view .LVU455
 1556 0008 FFF7FEFF 		bl	FLASH_OB_GetRDP
 1557              	.LVL115:
 516:Drivers/STM32H7xx_HAL_Driver/Src/stm32h7xx_hal_flash_ex.c **** 
 1558              		.loc 1 516 21 view .LVU456
 1559 000c E060     		str	r0, [r4, #12]
 519:Drivers/STM32H7xx_HAL_Driver/Src/stm32h7xx_hal_flash_ex.c **** 
 1560              		.loc 1 519 3 is_stmt 1 view .LVU457
 519:Drivers/STM32H7xx_HAL_Driver/Src/stm32h7xx_hal_flash_ex.c **** 
 1561              		.loc 1 519 25 is_stmt 0 view .LVU458
 1562 000e FFF7FEFF 		bl	FLASH_OB_GetUser
 1563              	.LVL116:
 519:Drivers/STM32H7xx_HAL_Driver/Src/stm32h7xx_hal_flash_ex.c **** 
 1564              		.loc 1 519 23 view .LVU459
 1565 0012 A061     		str	r0, [r4, #24]
 522:Drivers/STM32H7xx_HAL_Driver/Src/stm32h7xx_hal_flash_ex.c **** 
 1566              		.loc 1 522 3 is_stmt 1 view .LVU460
 522:Drivers/STM32H7xx_HAL_Driver/Src/stm32h7xx_hal_flash_ex.c **** 
 1567              		.loc 1 522 23 is_stmt 0 view .LVU461
 1568 0014 FFF7FEFF 		bl	FLASH_OB_GetBOR
 1569              	.LVL117:
 522:Drivers/STM32H7xx_HAL_Driver/Src/stm32h7xx_hal_flash_ex.c **** 
 1570              		.loc 1 522 21 view .LVU462
 1571 0018 2061     		str	r0, [r4, #16]
 524:Drivers/STM32H7xx_HAL_Driver/Src/stm32h7xx_hal_flash_ex.c ****   {
 1572              		.loc 1 524 3 is_stmt 1 view .LVU463
 524:Drivers/STM32H7xx_HAL_Driver/Src/stm32h7xx_hal_flash_ex.c ****   {
 1573              		.loc 1 524 15 is_stmt 0 view .LVU464
 1574 001a E269     		ldr	r2, [r4, #28]
 524:Drivers/STM32H7xx_HAL_Driver/Src/stm32h7xx_hal_flash_ex.c ****   {
 1575              		.loc 1 524 40 view .LVU465
 1576 001c 531E     		subs	r3, r2, #1
 524:Drivers/STM32H7xx_HAL_Driver/Src/stm32h7xx_hal_flash_ex.c ****   {
 1577              		.loc 1 524 6 view .LVU466
 1578 001e 012B     		cmp	r3, #1
 1579 0020 0AD9     		bls	.L138
 1580              	.L136:
 539:Drivers/STM32H7xx_HAL_Driver/Src/stm32h7xx_hal_flash_ex.c **** #if defined(DUAL_CORE)
 1581              		.loc 1 539 3 is_stmt 1 view .LVU467
 1582 0022 04F13401 		add	r1, r4, #52
 1583 0026 04F13000 		add	r0, r4, #48
 1584 002a FFF7FEFF 		bl	FLASH_OB_GetBootAdd
 1585              	.LVL118:
 546:Drivers/STM32H7xx_HAL_Driver/Src/stm32h7xx_hal_flash_ex.c **** #endif /*DUAL_CORE*/
 1586              		.loc 1 546 3 view .LVU468
 546:Drivers/STM32H7xx_HAL_Driver/Src/stm32h7xx_hal_flash_ex.c **** #endif /*DUAL_CORE*/
 1587              		.loc 1 546 23 is_stmt 0 view .LVU469
 1588 002e 2368     		ldr	r3, [r4]
 1589 0030 43F04003 		orr	r3, r3, #64
ARM GAS  C:\Users\chesn\AppData\Local\Temp\ccAfRyoq.s 			page 60


 1590 0034 2360     		str	r3, [r4]
 555:Drivers/STM32H7xx_HAL_Driver/Src/stm32h7xx_hal_flash_ex.c **** 
 1591              		.loc 1 555 1 view .LVU470
 1592 0036 10BD     		pop	{r4, pc}
 1593              	.LVL119:
 1594              	.L138:
 526:Drivers/STM32H7xx_HAL_Driver/Src/stm32h7xx_hal_flash_ex.c **** 
 1595              		.loc 1 526 5 is_stmt 1 view .LVU471
 526:Drivers/STM32H7xx_HAL_Driver/Src/stm32h7xx_hal_flash_ex.c **** 
 1596              		.loc 1 526 25 is_stmt 0 view .LVU472
 1597 0038 2368     		ldr	r3, [r4]
 1598 003a 43F02903 		orr	r3, r3, #41
 1599 003e 2146     		mov	r1, r4
 1600 0040 41F8083B 		str	r3, [r1], #8
 529:Drivers/STM32H7xx_HAL_Driver/Src/stm32h7xx_hal_flash_ex.c **** 
 1601              		.loc 1 529 5 is_stmt 1 view .LVU473
 1602 0044 201D     		adds	r0, r4, #4
 1603 0046 FFF7FEFF 		bl	FLASH_OB_GetWRP
 1604              	.LVL120:
 532:Drivers/STM32H7xx_HAL_Driver/Src/stm32h7xx_hal_flash_ex.c **** 
 1605              		.loc 1 532 5 view .LVU474
 1606 004a E369     		ldr	r3, [r4, #28]
 1607 004c 04F12802 		add	r2, r4, #40
 1608 0050 04F12401 		add	r1, r4, #36
 1609 0054 04F12000 		add	r0, r4, #32
 1610 0058 FFF7FEFF 		bl	FLASH_OB_GetPCROP
 1611              	.LVL121:
 535:Drivers/STM32H7xx_HAL_Driver/Src/stm32h7xx_hal_flash_ex.c ****   }
 1612              		.loc 1 535 5 view .LVU475
 1613 005c E369     		ldr	r3, [r4, #28]
 1614 005e 04F14002 		add	r2, r4, #64
 1615 0062 04F13C01 		add	r1, r4, #60
 1616 0066 04F13800 		add	r0, r4, #56
 1617 006a FFF7FEFF 		bl	FLASH_OB_GetSecureArea
 1618              	.LVL122:
 1619 006e D8E7     		b	.L136
 1620              		.cfi_endproc
 1621              	.LFE144:
 1623              		.section	.text.HAL_FLASHEx_Unlock_Bank1,"ax",%progbits
 1624              		.align	1
 1625              		.global	HAL_FLASHEx_Unlock_Bank1
 1626              		.syntax unified
 1627              		.thumb
 1628              		.thumb_func
 1629              		.fpu fpv5-d16
 1631              	HAL_FLASHEx_Unlock_Bank1:
 1632              	.LFB145:
 562:Drivers/STM32H7xx_HAL_Driver/Src/stm32h7xx_hal_flash_ex.c ****   if(READ_BIT(FLASH->CR1, FLASH_CR_LOCK) != 0U)
 1633              		.loc 1 562 1 view -0
 1634              		.cfi_startproc
 1635              		@ args = 0, pretend = 0, frame = 0
 1636              		@ frame_needed = 0, uses_anonymous_args = 0
 1637              		@ link register save eliminated.
 563:Drivers/STM32H7xx_HAL_Driver/Src/stm32h7xx_hal_flash_ex.c ****   {
 1638              		.loc 1 563 3 view .LVU477
 563:Drivers/STM32H7xx_HAL_Driver/Src/stm32h7xx_hal_flash_ex.c ****   {
 1639              		.loc 1 563 6 is_stmt 0 view .LVU478
ARM GAS  C:\Users\chesn\AppData\Local\Temp\ccAfRyoq.s 			page 61


 1640 0000 0A4B     		ldr	r3, .L143
 1641 0002 DB68     		ldr	r3, [r3, #12]
 563:Drivers/STM32H7xx_HAL_Driver/Src/stm32h7xx_hal_flash_ex.c ****   {
 1642              		.loc 1 563 5 view .LVU479
 1643 0004 13F0010F 		tst	r3, #1
 1644 0008 0BD0     		beq	.L141
 566:Drivers/STM32H7xx_HAL_Driver/Src/stm32h7xx_hal_flash_ex.c ****     WRITE_REG(FLASH->KEYR1, FLASH_KEY2);
 1645              		.loc 1 566 5 is_stmt 1 view .LVU480
 1646 000a 084B     		ldr	r3, .L143
 1647 000c 084A     		ldr	r2, .L143+4
 1648 000e 5A60     		str	r2, [r3, #4]
 567:Drivers/STM32H7xx_HAL_Driver/Src/stm32h7xx_hal_flash_ex.c **** 
 1649              		.loc 1 567 5 view .LVU481
 1650 0010 02F18832 		add	r2, r2, #-2004318072
 1651 0014 5A60     		str	r2, [r3, #4]
 570:Drivers/STM32H7xx_HAL_Driver/Src/stm32h7xx_hal_flash_ex.c ****     {
 1652              		.loc 1 570 5 view .LVU482
 570:Drivers/STM32H7xx_HAL_Driver/Src/stm32h7xx_hal_flash_ex.c ****     {
 1653              		.loc 1 570 9 is_stmt 0 view .LVU483
 1654 0016 DB68     		ldr	r3, [r3, #12]
 570:Drivers/STM32H7xx_HAL_Driver/Src/stm32h7xx_hal_flash_ex.c ****     {
 1655              		.loc 1 570 8 view .LVU484
 1656 0018 13F0010F 		tst	r3, #1
 1657 001c 03D1     		bne	.L142
 576:Drivers/STM32H7xx_HAL_Driver/Src/stm32h7xx_hal_flash_ex.c **** }
 1658              		.loc 1 576 10 view .LVU485
 1659 001e 0020     		movs	r0, #0
 1660 0020 7047     		bx	lr
 1661              	.L141:
 1662 0022 0020     		movs	r0, #0
 1663 0024 7047     		bx	lr
 1664              	.L142:
 572:Drivers/STM32H7xx_HAL_Driver/Src/stm32h7xx_hal_flash_ex.c ****     }
 1665              		.loc 1 572 14 view .LVU486
 1666 0026 0120     		movs	r0, #1
 577:Drivers/STM32H7xx_HAL_Driver/Src/stm32h7xx_hal_flash_ex.c **** 
 1667              		.loc 1 577 1 view .LVU487
 1668 0028 7047     		bx	lr
 1669              	.L144:
 1670 002a 00BF     		.align	2
 1671              	.L143:
 1672 002c 00200052 		.word	1375739904
 1673 0030 23016745 		.word	1164378403
 1674              		.cfi_endproc
 1675              	.LFE145:
 1677              		.section	.text.HAL_FLASHEx_Lock_Bank1,"ax",%progbits
 1678              		.align	1
 1679              		.global	HAL_FLASHEx_Lock_Bank1
 1680              		.syntax unified
 1681              		.thumb
 1682              		.thumb_func
 1683              		.fpu fpv5-d16
 1685              	HAL_FLASHEx_Lock_Bank1:
 1686              	.LFB146:
 584:Drivers/STM32H7xx_HAL_Driver/Src/stm32h7xx_hal_flash_ex.c ****   /* Set the LOCK Bit to lock the FLASH Bank1 Registers access */
 1687              		.loc 1 584 1 is_stmt 1 view -0
 1688              		.cfi_startproc
ARM GAS  C:\Users\chesn\AppData\Local\Temp\ccAfRyoq.s 			page 62


 1689              		@ args = 0, pretend = 0, frame = 0
 1690              		@ frame_needed = 0, uses_anonymous_args = 0
 1691              		@ link register save eliminated.
 586:Drivers/STM32H7xx_HAL_Driver/Src/stm32h7xx_hal_flash_ex.c ****   return HAL_OK;
 1692              		.loc 1 586 3 view .LVU489
 1693 0000 034A     		ldr	r2, .L146
 1694 0002 D368     		ldr	r3, [r2, #12]
 1695 0004 43F00103 		orr	r3, r3, #1
 1696 0008 D360     		str	r3, [r2, #12]
 587:Drivers/STM32H7xx_HAL_Driver/Src/stm32h7xx_hal_flash_ex.c **** }
 1697              		.loc 1 587 3 view .LVU490
 588:Drivers/STM32H7xx_HAL_Driver/Src/stm32h7xx_hal_flash_ex.c **** 
 1698              		.loc 1 588 1 is_stmt 0 view .LVU491
 1699 000a 0020     		movs	r0, #0
 1700 000c 7047     		bx	lr
 1701              	.L147:
 1702 000e 00BF     		.align	2
 1703              	.L146:
 1704 0010 00200052 		.word	1375739904
 1705              		.cfi_endproc
 1706              	.LFE146:
 1708              		.section	.text.HAL_FLASHEx_Unlock_Bank2,"ax",%progbits
 1709              		.align	1
 1710              		.global	HAL_FLASHEx_Unlock_Bank2
 1711              		.syntax unified
 1712              		.thumb
 1713              		.thumb_func
 1714              		.fpu fpv5-d16
 1716              	HAL_FLASHEx_Unlock_Bank2:
 1717              	.LFB147:
 595:Drivers/STM32H7xx_HAL_Driver/Src/stm32h7xx_hal_flash_ex.c ****   if(READ_BIT(FLASH->CR2, FLASH_CR_LOCK) != 0U)
 1718              		.loc 1 595 1 is_stmt 1 view -0
 1719              		.cfi_startproc
 1720              		@ args = 0, pretend = 0, frame = 0
 1721              		@ frame_needed = 0, uses_anonymous_args = 0
 1722              		@ link register save eliminated.
 596:Drivers/STM32H7xx_HAL_Driver/Src/stm32h7xx_hal_flash_ex.c ****   {
 1723              		.loc 1 596 3 view .LVU493
 596:Drivers/STM32H7xx_HAL_Driver/Src/stm32h7xx_hal_flash_ex.c ****   {
 1724              		.loc 1 596 6 is_stmt 0 view .LVU494
 1725 0000 0C4B     		ldr	r3, .L152
 1726 0002 D3F80C31 		ldr	r3, [r3, #268]
 596:Drivers/STM32H7xx_HAL_Driver/Src/stm32h7xx_hal_flash_ex.c ****   {
 1727              		.loc 1 596 5 view .LVU495
 1728 0006 13F0010F 		tst	r3, #1
 1729 000a 0ED0     		beq	.L150
 599:Drivers/STM32H7xx_HAL_Driver/Src/stm32h7xx_hal_flash_ex.c ****     WRITE_REG(FLASH->KEYR2, FLASH_KEY2);
 1730              		.loc 1 599 5 is_stmt 1 view .LVU496
 1731 000c 094B     		ldr	r3, .L152
 1732 000e 0A4A     		ldr	r2, .L152+4
 1733 0010 C3F80421 		str	r2, [r3, #260]
 600:Drivers/STM32H7xx_HAL_Driver/Src/stm32h7xx_hal_flash_ex.c **** 
 1734              		.loc 1 600 5 view .LVU497
 1735 0014 02F18832 		add	r2, r2, #-2004318072
 1736 0018 C3F80421 		str	r2, [r3, #260]
 603:Drivers/STM32H7xx_HAL_Driver/Src/stm32h7xx_hal_flash_ex.c ****     {
 1737              		.loc 1 603 5 view .LVU498
ARM GAS  C:\Users\chesn\AppData\Local\Temp\ccAfRyoq.s 			page 63


 603:Drivers/STM32H7xx_HAL_Driver/Src/stm32h7xx_hal_flash_ex.c ****     {
 1738              		.loc 1 603 9 is_stmt 0 view .LVU499
 1739 001c D3F80C31 		ldr	r3, [r3, #268]
 603:Drivers/STM32H7xx_HAL_Driver/Src/stm32h7xx_hal_flash_ex.c ****     {
 1740              		.loc 1 603 8 view .LVU500
 1741 0020 13F0010F 		tst	r3, #1
 1742 0024 03D1     		bne	.L151
 609:Drivers/STM32H7xx_HAL_Driver/Src/stm32h7xx_hal_flash_ex.c **** }
 1743              		.loc 1 609 10 view .LVU501
 1744 0026 0020     		movs	r0, #0
 1745 0028 7047     		bx	lr
 1746              	.L150:
 1747 002a 0020     		movs	r0, #0
 1748 002c 7047     		bx	lr
 1749              	.L151:
 605:Drivers/STM32H7xx_HAL_Driver/Src/stm32h7xx_hal_flash_ex.c ****     }
 1750              		.loc 1 605 14 view .LVU502
 1751 002e 0120     		movs	r0, #1
 610:Drivers/STM32H7xx_HAL_Driver/Src/stm32h7xx_hal_flash_ex.c **** 
 1752              		.loc 1 610 1 view .LVU503
 1753 0030 7047     		bx	lr
 1754              	.L153:
 1755 0032 00BF     		.align	2
 1756              	.L152:
 1757 0034 00200052 		.word	1375739904
 1758 0038 23016745 		.word	1164378403
 1759              		.cfi_endproc
 1760              	.LFE147:
 1762              		.section	.text.HAL_FLASHEx_Lock_Bank2,"ax",%progbits
 1763              		.align	1
 1764              		.global	HAL_FLASHEx_Lock_Bank2
 1765              		.syntax unified
 1766              		.thumb
 1767              		.thumb_func
 1768              		.fpu fpv5-d16
 1770              	HAL_FLASHEx_Lock_Bank2:
 1771              	.LFB148:
 617:Drivers/STM32H7xx_HAL_Driver/Src/stm32h7xx_hal_flash_ex.c ****   /* Set the LOCK Bit to lock the FLASH Bank2 Registers access */
 1772              		.loc 1 617 1 is_stmt 1 view -0
 1773              		.cfi_startproc
 1774              		@ args = 0, pretend = 0, frame = 0
 1775              		@ frame_needed = 0, uses_anonymous_args = 0
 1776              		@ link register save eliminated.
 619:Drivers/STM32H7xx_HAL_Driver/Src/stm32h7xx_hal_flash_ex.c ****   return HAL_OK;
 1777              		.loc 1 619 3 view .LVU505
 1778 0000 044A     		ldr	r2, .L155
 1779 0002 D2F80C31 		ldr	r3, [r2, #268]
 1780 0006 43F00103 		orr	r3, r3, #1
 1781 000a C2F80C31 		str	r3, [r2, #268]
 620:Drivers/STM32H7xx_HAL_Driver/Src/stm32h7xx_hal_flash_ex.c **** }
 1782              		.loc 1 620 3 view .LVU506
 621:Drivers/STM32H7xx_HAL_Driver/Src/stm32h7xx_hal_flash_ex.c **** 
 1783              		.loc 1 621 1 is_stmt 0 view .LVU507
 1784 000e 0020     		movs	r0, #0
 1785 0010 7047     		bx	lr
 1786              	.L156:
 1787 0012 00BF     		.align	2
ARM GAS  C:\Users\chesn\AppData\Local\Temp\ccAfRyoq.s 			page 64


 1788              	.L155:
 1789 0014 00200052 		.word	1375739904
 1790              		.cfi_endproc
 1791              	.LFE148:
 1793              		.section	.text.HAL_FLASHEx_ComputeCRC,"ax",%progbits
 1794              		.align	1
 1795              		.global	HAL_FLASHEx_ComputeCRC
 1796              		.syntax unified
 1797              		.thumb
 1798              		.thumb_func
 1799              		.fpu fpv5-d16
 1801              	HAL_FLASHEx_ComputeCRC:
 1802              	.LVL123:
 1803              	.LFB149:
 635:Drivers/STM32H7xx_HAL_Driver/Src/stm32h7xx_hal_flash_ex.c ****   HAL_StatusTypeDef status;
 1804              		.loc 1 635 1 is_stmt 1 view -0
 1805              		.cfi_startproc
 1806              		@ args = 0, pretend = 0, frame = 0
 1807              		@ frame_needed = 0, uses_anonymous_args = 0
 635:Drivers/STM32H7xx_HAL_Driver/Src/stm32h7xx_hal_flash_ex.c ****   HAL_StatusTypeDef status;
 1808              		.loc 1 635 1 is_stmt 0 view .LVU509
 1809 0000 70B5     		push	{r4, r5, r6, lr}
 1810              	.LCFI21:
 1811              		.cfi_def_cfa_offset 16
 1812              		.cfi_offset 4, -16
 1813              		.cfi_offset 5, -12
 1814              		.cfi_offset 6, -8
 1815              		.cfi_offset 14, -4
 1816 0002 0446     		mov	r4, r0
 1817 0004 0E46     		mov	r6, r1
 636:Drivers/STM32H7xx_HAL_Driver/Src/stm32h7xx_hal_flash_ex.c ****   uint32_t sector_index;
 1818              		.loc 1 636 3 is_stmt 1 view .LVU510
 637:Drivers/STM32H7xx_HAL_Driver/Src/stm32h7xx_hal_flash_ex.c **** 
 1819              		.loc 1 637 3 view .LVU511
 640:Drivers/STM32H7xx_HAL_Driver/Src/stm32h7xx_hal_flash_ex.c ****   assert_param(IS_FLASH_TYPECRC(pCRCInit->TypeCRC));
 1820              		.loc 1 640 3 view .LVU512
 641:Drivers/STM32H7xx_HAL_Driver/Src/stm32h7xx_hal_flash_ex.c **** 
 1821              		.loc 1 641 3 view .LVU513
 644:Drivers/STM32H7xx_HAL_Driver/Src/stm32h7xx_hal_flash_ex.c **** 
 1822              		.loc 1 644 3 view .LVU514
 644:Drivers/STM32H7xx_HAL_Driver/Src/stm32h7xx_hal_flash_ex.c **** 
 1823              		.loc 1 644 12 is_stmt 0 view .LVU515
 1824 0006 4CF25030 		movw	r0, #50000
 1825              	.LVL124:
 644:Drivers/STM32H7xx_HAL_Driver/Src/stm32h7xx_hal_flash_ex.c **** 
 1826              		.loc 1 644 12 view .LVU516
 1827 000a FFF7FEFF 		bl	FLASH_OB_WaitForLastOperation
 1828              	.LVL125:
 646:Drivers/STM32H7xx_HAL_Driver/Src/stm32h7xx_hal_flash_ex.c ****   {
 1829              		.loc 1 646 3 is_stmt 1 view .LVU517
 646:Drivers/STM32H7xx_HAL_Driver/Src/stm32h7xx_hal_flash_ex.c ****   {
 1830              		.loc 1 646 6 is_stmt 0 view .LVU518
 1831 000e 0028     		cmp	r0, #0
 1832 0010 3FD1     		bne	.L158
 648:Drivers/STM32H7xx_HAL_Driver/Src/stm32h7xx_hal_flash_ex.c ****     {
 1833              		.loc 1 648 5 is_stmt 1 view .LVU519
 648:Drivers/STM32H7xx_HAL_Driver/Src/stm32h7xx_hal_flash_ex.c ****     {
ARM GAS  C:\Users\chesn\AppData\Local\Temp\ccAfRyoq.s 			page 65


 1834              		.loc 1 648 17 is_stmt 0 view .LVU520
 1835 0012 A368     		ldr	r3, [r4, #8]
 648:Drivers/STM32H7xx_HAL_Driver/Src/stm32h7xx_hal_flash_ex.c ****     {
 1836              		.loc 1 648 8 view .LVU521
 1837 0014 012B     		cmp	r3, #1
 1838 0016 3DD0     		beq	.L171
 699:Drivers/STM32H7xx_HAL_Driver/Src/stm32h7xx_hal_flash_ex.c **** 
 1839              		.loc 1 699 7 is_stmt 1 view .LVU522
 699:Drivers/STM32H7xx_HAL_Driver/Src/stm32h7xx_hal_flash_ex.c **** 
 1840              		.loc 1 699 18 is_stmt 0 view .LVU523
 1841 0018 4F4B     		ldr	r3, .L174
 1842 001a D3F80C21 		ldr	r2, [r3, #268]
 1843 001e 42F40042 		orr	r2, r2, #32768
 1844 0022 C3F80C21 		str	r2, [r3, #268]
 702:Drivers/STM32H7xx_HAL_Driver/Src/stm32h7xx_hal_flash_ex.c **** 
 1845              		.loc 1 702 7 is_stmt 1 view .LVU524
 702:Drivers/STM32H7xx_HAL_Driver/Src/stm32h7xx_hal_flash_ex.c **** 
 1846              		.loc 1 702 19 is_stmt 0 view .LVU525
 1847 0026 D3F81421 		ldr	r2, [r3, #276]
 1848 002a 42F0C052 		orr	r2, r2, #402653184
 1849 002e C3F81421 		str	r2, [r3, #276]
 705:Drivers/STM32H7xx_HAL_Driver/Src/stm32h7xx_hal_flash_ex.c **** 
 1850              		.loc 1 705 7 is_stmt 1 view .LVU526
 705:Drivers/STM32H7xx_HAL_Driver/Src/stm32h7xx_hal_flash_ex.c **** 
 1851              		.loc 1 705 21 is_stmt 0 view .LVU527
 1852 0032 D3F85021 		ldr	r2, [r3, #336]
 705:Drivers/STM32H7xx_HAL_Driver/Src/stm32h7xx_hal_flash_ex.c **** 
 1853              		.loc 1 705 56 view .LVU528
 1854 0036 6168     		ldr	r1, [r4, #4]
 705:Drivers/STM32H7xx_HAL_Driver/Src/stm32h7xx_hal_flash_ex.c **** 
 1855              		.loc 1 705 78 view .LVU529
 1856 0038 2068     		ldr	r0, [r4]
 705:Drivers/STM32H7xx_HAL_Driver/Src/stm32h7xx_hal_flash_ex.c **** 
 1857              		.loc 1 705 68 view .LVU530
 1858 003a 0143     		orrs	r1, r1, r0
 705:Drivers/STM32H7xx_HAL_Driver/Src/stm32h7xx_hal_flash_ex.c **** 
 1859              		.loc 1 705 21 view .LVU531
 1860 003c 0A43     		orrs	r2, r2, r1
 1861 003e 42F40032 		orr	r2, r2, #131072
 1862 0042 C3F85021 		str	r2, [r3, #336]
 707:Drivers/STM32H7xx_HAL_Driver/Src/stm32h7xx_hal_flash_ex.c ****       {
 1863              		.loc 1 707 7 is_stmt 1 view .LVU532
 707:Drivers/STM32H7xx_HAL_Driver/Src/stm32h7xx_hal_flash_ex.c ****       {
 1864              		.loc 1 707 19 is_stmt 0 view .LVU533
 1865 0046 2368     		ldr	r3, [r4]
 707:Drivers/STM32H7xx_HAL_Driver/Src/stm32h7xx_hal_flash_ex.c ****       {
 1866              		.loc 1 707 10 view .LVU534
 1867 0048 B3F5807F 		cmp	r3, #256
 1868 004c 6AD0     		beq	.L172
 718:Drivers/STM32H7xx_HAL_Driver/Src/stm32h7xx_hal_flash_ex.c ****       {
 1869              		.loc 1 718 12 is_stmt 1 view .LVU535
 718:Drivers/STM32H7xx_HAL_Driver/Src/stm32h7xx_hal_flash_ex.c ****       {
 1870              		.loc 1 718 15 is_stmt 0 view .LVU536
 1871 004e 434A     		ldr	r2, .L174+4
 1872 0050 9342     		cmp	r3, r2
 1873 0052 7AD1     		bne	.L169
 721:Drivers/STM32H7xx_HAL_Driver/Src/stm32h7xx_hal_flash_ex.c ****       }
ARM GAS  C:\Users\chesn\AppData\Local\Temp\ccAfRyoq.s 			page 66


 1874              		.loc 1 721 9 is_stmt 1 view .LVU537
 721:Drivers/STM32H7xx_HAL_Driver/Src/stm32h7xx_hal_flash_ex.c ****       }
 1875              		.loc 1 721 23 is_stmt 0 view .LVU538
 1876 0054 404A     		ldr	r2, .L174
 1877 0056 D2F85031 		ldr	r3, [r2, #336]
 1878 005a 43F48003 		orr	r3, r3, #4194304
 1879 005e C2F85031 		str	r3, [r2, #336]
 1880              	.L168:
 730:Drivers/STM32H7xx_HAL_Driver/Src/stm32h7xx_hal_flash_ex.c **** 
 1881              		.loc 1 730 7 is_stmt 1 view .LVU539
 730:Drivers/STM32H7xx_HAL_Driver/Src/stm32h7xx_hal_flash_ex.c **** 
 1882              		.loc 1 730 21 is_stmt 0 view .LVU540
 1883 0062 3D4C     		ldr	r4, .L174
 1884              	.LVL126:
 730:Drivers/STM32H7xx_HAL_Driver/Src/stm32h7xx_hal_flash_ex.c **** 
 1885              		.loc 1 730 21 view .LVU541
 1886 0064 D4F85031 		ldr	r3, [r4, #336]
 1887 0068 43F48033 		orr	r3, r3, #65536
 1888 006c C4F85031 		str	r3, [r4, #336]
 733:Drivers/STM32H7xx_HAL_Driver/Src/stm32h7xx_hal_flash_ex.c **** 
 1889              		.loc 1 733 7 is_stmt 1 view .LVU542
 733:Drivers/STM32H7xx_HAL_Driver/Src/stm32h7xx_hal_flash_ex.c **** 
 1890              		.loc 1 733 16 is_stmt 0 view .LVU543
 1891 0070 0221     		movs	r1, #2
 1892 0072 4CF25030 		movw	r0, #50000
 1893 0076 FFF7FEFF 		bl	FLASH_CRC_WaitForLastOperation
 1894              	.LVL127:
 736:Drivers/STM32H7xx_HAL_Driver/Src/stm32h7xx_hal_flash_ex.c **** 
 1895              		.loc 1 736 7 is_stmt 1 view .LVU544
 736:Drivers/STM32H7xx_HAL_Driver/Src/stm32h7xx_hal_flash_ex.c **** 
 1896              		.loc 1 736 28 is_stmt 0 view .LVU545
 1897 007a E36D     		ldr	r3, [r4, #92]
 736:Drivers/STM32H7xx_HAL_Driver/Src/stm32h7xx_hal_flash_ex.c **** 
 1898              		.loc 1 736 21 view .LVU546
 1899 007c 3360     		str	r3, [r6]
 739:Drivers/STM32H7xx_HAL_Driver/Src/stm32h7xx_hal_flash_ex.c **** 
 1900              		.loc 1 739 7 is_stmt 1 view .LVU547
 739:Drivers/STM32H7xx_HAL_Driver/Src/stm32h7xx_hal_flash_ex.c **** 
 1901              		.loc 1 739 18 is_stmt 0 view .LVU548
 1902 007e D4F80C31 		ldr	r3, [r4, #268]
 1903 0082 23F40043 		bic	r3, r3, #32768
 1904 0086 C4F80C31 		str	r3, [r4, #268]
 742:Drivers/STM32H7xx_HAL_Driver/Src/stm32h7xx_hal_flash_ex.c ****     }
 1905              		.loc 1 742 7 is_stmt 1 view .LVU549
 1906 008a 4FF0C053 		mov	r3, #402653184
 1907 008e C4F81431 		str	r3, [r4, #276]
 1908              	.LVL128:
 1909              	.L158:
 746:Drivers/STM32H7xx_HAL_Driver/Src/stm32h7xx_hal_flash_ex.c **** }
 1910              		.loc 1 746 3 view .LVU550
 747:Drivers/STM32H7xx_HAL_Driver/Src/stm32h7xx_hal_flash_ex.c **** 
 1911              		.loc 1 747 1 is_stmt 0 view .LVU551
 1912 0092 70BD     		pop	{r4, r5, r6, pc}
 1913              	.LVL129:
 1914              	.L171:
 651:Drivers/STM32H7xx_HAL_Driver/Src/stm32h7xx_hal_flash_ex.c **** 
 1915              		.loc 1 651 7 is_stmt 1 view .LVU552
ARM GAS  C:\Users\chesn\AppData\Local\Temp\ccAfRyoq.s 			page 67


 651:Drivers/STM32H7xx_HAL_Driver/Src/stm32h7xx_hal_flash_ex.c **** 
 1916              		.loc 1 651 18 is_stmt 0 view .LVU553
 1917 0094 304B     		ldr	r3, .L174
 1918 0096 DA68     		ldr	r2, [r3, #12]
 1919 0098 42F40042 		orr	r2, r2, #32768
 1920 009c DA60     		str	r2, [r3, #12]
 654:Drivers/STM32H7xx_HAL_Driver/Src/stm32h7xx_hal_flash_ex.c **** 
 1921              		.loc 1 654 7 is_stmt 1 view .LVU554
 654:Drivers/STM32H7xx_HAL_Driver/Src/stm32h7xx_hal_flash_ex.c **** 
 1922              		.loc 1 654 19 is_stmt 0 view .LVU555
 1923 009e 5A69     		ldr	r2, [r3, #20]
 1924 00a0 42F0C052 		orr	r2, r2, #402653184
 1925 00a4 5A61     		str	r2, [r3, #20]
 657:Drivers/STM32H7xx_HAL_Driver/Src/stm32h7xx_hal_flash_ex.c **** 
 1926              		.loc 1 657 7 is_stmt 1 view .LVU556
 657:Drivers/STM32H7xx_HAL_Driver/Src/stm32h7xx_hal_flash_ex.c **** 
 1927              		.loc 1 657 21 is_stmt 0 view .LVU557
 1928 00a6 1A6D     		ldr	r2, [r3, #80]
 657:Drivers/STM32H7xx_HAL_Driver/Src/stm32h7xx_hal_flash_ex.c **** 
 1929              		.loc 1 657 56 view .LVU558
 1930 00a8 6168     		ldr	r1, [r4, #4]
 657:Drivers/STM32H7xx_HAL_Driver/Src/stm32h7xx_hal_flash_ex.c **** 
 1931              		.loc 1 657 78 view .LVU559
 1932 00aa 2068     		ldr	r0, [r4]
 657:Drivers/STM32H7xx_HAL_Driver/Src/stm32h7xx_hal_flash_ex.c **** 
 1933              		.loc 1 657 68 view .LVU560
 1934 00ac 0143     		orrs	r1, r1, r0
 657:Drivers/STM32H7xx_HAL_Driver/Src/stm32h7xx_hal_flash_ex.c **** 
 1935              		.loc 1 657 21 view .LVU561
 1936 00ae 0A43     		orrs	r2, r2, r1
 1937 00b0 42F40032 		orr	r2, r2, #131072
 1938 00b4 1A65     		str	r2, [r3, #80]
 659:Drivers/STM32H7xx_HAL_Driver/Src/stm32h7xx_hal_flash_ex.c ****       {
 1939              		.loc 1 659 7 is_stmt 1 view .LVU562
 659:Drivers/STM32H7xx_HAL_Driver/Src/stm32h7xx_hal_flash_ex.c ****       {
 1940              		.loc 1 659 19 is_stmt 0 view .LVU563
 1941 00b6 2368     		ldr	r3, [r4]
 659:Drivers/STM32H7xx_HAL_Driver/Src/stm32h7xx_hal_flash_ex.c ****       {
 1942              		.loc 1 659 10 view .LVU564
 1943 00b8 B3F5807F 		cmp	r3, #256
 1944 00bc 1BD0     		beq	.L173
 670:Drivers/STM32H7xx_HAL_Driver/Src/stm32h7xx_hal_flash_ex.c ****       {
 1945              		.loc 1 670 12 is_stmt 1 view .LVU565
 670:Drivers/STM32H7xx_HAL_Driver/Src/stm32h7xx_hal_flash_ex.c ****       {
 1946              		.loc 1 670 15 is_stmt 0 view .LVU566
 1947 00be 274A     		ldr	r2, .L174+4
 1948 00c0 9342     		cmp	r3, r2
 1949 00c2 29D1     		bne	.L164
 673:Drivers/STM32H7xx_HAL_Driver/Src/stm32h7xx_hal_flash_ex.c ****       }
 1950              		.loc 1 673 9 is_stmt 1 view .LVU567
 673:Drivers/STM32H7xx_HAL_Driver/Src/stm32h7xx_hal_flash_ex.c ****       }
 1951              		.loc 1 673 23 is_stmt 0 view .LVU568
 1952 00c4 244A     		ldr	r2, .L174
 1953 00c6 136D     		ldr	r3, [r2, #80]
 1954 00c8 43F48003 		orr	r3, r3, #4194304
 1955 00cc 1365     		str	r3, [r2, #80]
 1956              	.L163:
ARM GAS  C:\Users\chesn\AppData\Local\Temp\ccAfRyoq.s 			page 68


 682:Drivers/STM32H7xx_HAL_Driver/Src/stm32h7xx_hal_flash_ex.c **** 
 1957              		.loc 1 682 7 is_stmt 1 view .LVU569
 682:Drivers/STM32H7xx_HAL_Driver/Src/stm32h7xx_hal_flash_ex.c **** 
 1958              		.loc 1 682 21 is_stmt 0 view .LVU570
 1959 00ce 224C     		ldr	r4, .L174
 1960              	.LVL130:
 682:Drivers/STM32H7xx_HAL_Driver/Src/stm32h7xx_hal_flash_ex.c **** 
 1961              		.loc 1 682 21 view .LVU571
 1962 00d0 236D     		ldr	r3, [r4, #80]
 1963 00d2 43F48033 		orr	r3, r3, #65536
 1964 00d6 2365     		str	r3, [r4, #80]
 685:Drivers/STM32H7xx_HAL_Driver/Src/stm32h7xx_hal_flash_ex.c **** 
 1965              		.loc 1 685 7 is_stmt 1 view .LVU572
 685:Drivers/STM32H7xx_HAL_Driver/Src/stm32h7xx_hal_flash_ex.c **** 
 1966              		.loc 1 685 16 is_stmt 0 view .LVU573
 1967 00d8 0121     		movs	r1, #1
 1968 00da 4CF25030 		movw	r0, #50000
 1969 00de FFF7FEFF 		bl	FLASH_CRC_WaitForLastOperation
 1970              	.LVL131:
 688:Drivers/STM32H7xx_HAL_Driver/Src/stm32h7xx_hal_flash_ex.c **** 
 1971              		.loc 1 688 7 is_stmt 1 view .LVU574
 688:Drivers/STM32H7xx_HAL_Driver/Src/stm32h7xx_hal_flash_ex.c **** 
 1972              		.loc 1 688 28 is_stmt 0 view .LVU575
 1973 00e2 E36D     		ldr	r3, [r4, #92]
 688:Drivers/STM32H7xx_HAL_Driver/Src/stm32h7xx_hal_flash_ex.c **** 
 1974              		.loc 1 688 21 view .LVU576
 1975 00e4 3360     		str	r3, [r6]
 691:Drivers/STM32H7xx_HAL_Driver/Src/stm32h7xx_hal_flash_ex.c **** 
 1976              		.loc 1 691 7 is_stmt 1 view .LVU577
 691:Drivers/STM32H7xx_HAL_Driver/Src/stm32h7xx_hal_flash_ex.c **** 
 1977              		.loc 1 691 18 is_stmt 0 view .LVU578
 1978 00e6 E368     		ldr	r3, [r4, #12]
 1979 00e8 23F40043 		bic	r3, r3, #32768
 1980 00ec E360     		str	r3, [r4, #12]
 694:Drivers/STM32H7xx_HAL_Driver/Src/stm32h7xx_hal_flash_ex.c ****     }
 1981              		.loc 1 694 7 is_stmt 1 view .LVU579
 1982 00ee 4FF0C053 		mov	r3, #402653184
 1983 00f2 6361     		str	r3, [r4, #20]
 1984 00f4 CDE7     		b	.L158
 1985              	.LVL132:
 1986              	.L173:
 662:Drivers/STM32H7xx_HAL_Driver/Src/stm32h7xx_hal_flash_ex.c **** 
 1987              		.loc 1 662 9 view .LVU580
 662:Drivers/STM32H7xx_HAL_Driver/Src/stm32h7xx_hal_flash_ex.c **** 
 1988              		.loc 1 662 23 is_stmt 0 view .LVU581
 1989 00f6 184A     		ldr	r2, .L174
 1990 00f8 136D     		ldr	r3, [r2, #80]
 1991 00fa 43F48063 		orr	r3, r3, #1024
 1992 00fe 1365     		str	r3, [r2, #80]
 665:Drivers/STM32H7xx_HAL_Driver/Src/stm32h7xx_hal_flash_ex.c ****         {
 1993              		.loc 1 665 9 is_stmt 1 view .LVU582
 665:Drivers/STM32H7xx_HAL_Driver/Src/stm32h7xx_hal_flash_ex.c ****         {
 1994              		.loc 1 665 26 is_stmt 0 view .LVU583
 1995 0100 E568     		ldr	r5, [r4, #12]
 1996              	.LVL133:
 1997              	.L161:
 665:Drivers/STM32H7xx_HAL_Driver/Src/stm32h7xx_hal_flash_ex.c ****         {
ARM GAS  C:\Users\chesn\AppData\Local\Temp\ccAfRyoq.s 			page 69


 1998              		.loc 1 665 46 is_stmt 1 discriminator 1 view .LVU584
 665:Drivers/STM32H7xx_HAL_Driver/Src/stm32h7xx_hal_flash_ex.c ****         {
 1999              		.loc 1 665 70 is_stmt 0 discriminator 1 view .LVU585
 2000 0102 2369     		ldr	r3, [r4, #16]
 665:Drivers/STM32H7xx_HAL_Driver/Src/stm32h7xx_hal_flash_ex.c ****         {
 2001              		.loc 1 665 92 discriminator 1 view .LVU586
 2002 0104 E268     		ldr	r2, [r4, #12]
 665:Drivers/STM32H7xx_HAL_Driver/Src/stm32h7xx_hal_flash_ex.c ****         {
 2003              		.loc 1 665 82 discriminator 1 view .LVU587
 2004 0106 1344     		add	r3, r3, r2
 665:Drivers/STM32H7xx_HAL_Driver/Src/stm32h7xx_hal_flash_ex.c ****         {
 2005              		.loc 1 665 9 discriminator 1 view .LVU588
 2006 0108 AB42     		cmp	r3, r5
 2007 010a E0D9     		bls	.L163
 667:Drivers/STM32H7xx_HAL_Driver/Src/stm32h7xx_hal_flash_ex.c ****         }
 2008              		.loc 1 667 11 is_stmt 1 discriminator 3 view .LVU589
 2009 010c 0121     		movs	r1, #1
 2010 010e 2846     		mov	r0, r5
 2011 0110 FFF7FEFF 		bl	FLASH_CRC_AddSector
 2012              	.LVL134:
 665:Drivers/STM32H7xx_HAL_Driver/Src/stm32h7xx_hal_flash_ex.c ****         {
 2013              		.loc 1 665 103 discriminator 3 view .LVU590
 665:Drivers/STM32H7xx_HAL_Driver/Src/stm32h7xx_hal_flash_ex.c ****         {
 2014              		.loc 1 665 115 is_stmt 0 discriminator 3 view .LVU591
 2015 0114 0135     		adds	r5, r5, #1
 2016              	.LVL135:
 665:Drivers/STM32H7xx_HAL_Driver/Src/stm32h7xx_hal_flash_ex.c ****         {
 2017              		.loc 1 665 115 discriminator 3 view .LVU592
 2018 0116 F4E7     		b	.L161
 2019              	.LVL136:
 2020              	.L164:
 678:Drivers/STM32H7xx_HAL_Driver/Src/stm32h7xx_hal_flash_ex.c ****       }
 2021              		.loc 1 678 9 is_stmt 1 view .LVU593
 2022 0118 0122     		movs	r2, #1
 2023 011a A169     		ldr	r1, [r4, #24]
 2024 011c 6069     		ldr	r0, [r4, #20]
 2025 011e FFF7FEFF 		bl	FLASH_CRC_SelectAddress
 2026              	.LVL137:
 2027 0122 D4E7     		b	.L163
 2028              	.L172:
 710:Drivers/STM32H7xx_HAL_Driver/Src/stm32h7xx_hal_flash_ex.c **** 
 2029              		.loc 1 710 9 view .LVU594
 710:Drivers/STM32H7xx_HAL_Driver/Src/stm32h7xx_hal_flash_ex.c **** 
 2030              		.loc 1 710 23 is_stmt 0 view .LVU595
 2031 0124 0C4A     		ldr	r2, .L174
 2032 0126 D2F85031 		ldr	r3, [r2, #336]
 2033 012a 43F48063 		orr	r3, r3, #1024
 2034 012e C2F85031 		str	r3, [r2, #336]
 713:Drivers/STM32H7xx_HAL_Driver/Src/stm32h7xx_hal_flash_ex.c ****         {
 2035              		.loc 1 713 9 is_stmt 1 view .LVU596
 713:Drivers/STM32H7xx_HAL_Driver/Src/stm32h7xx_hal_flash_ex.c ****         {
 2036              		.loc 1 713 26 is_stmt 0 view .LVU597
 2037 0132 E568     		ldr	r5, [r4, #12]
 2038              	.LVL138:
 2039              	.L166:
 713:Drivers/STM32H7xx_HAL_Driver/Src/stm32h7xx_hal_flash_ex.c ****         {
 2040              		.loc 1 713 46 is_stmt 1 discriminator 1 view .LVU598
ARM GAS  C:\Users\chesn\AppData\Local\Temp\ccAfRyoq.s 			page 70


 713:Drivers/STM32H7xx_HAL_Driver/Src/stm32h7xx_hal_flash_ex.c ****         {
 2041              		.loc 1 713 70 is_stmt 0 discriminator 1 view .LVU599
 2042 0134 2369     		ldr	r3, [r4, #16]
 713:Drivers/STM32H7xx_HAL_Driver/Src/stm32h7xx_hal_flash_ex.c ****         {
 2043              		.loc 1 713 92 discriminator 1 view .LVU600
 2044 0136 E268     		ldr	r2, [r4, #12]
 713:Drivers/STM32H7xx_HAL_Driver/Src/stm32h7xx_hal_flash_ex.c ****         {
 2045              		.loc 1 713 82 discriminator 1 view .LVU601
 2046 0138 1344     		add	r3, r3, r2
 713:Drivers/STM32H7xx_HAL_Driver/Src/stm32h7xx_hal_flash_ex.c ****         {
 2047              		.loc 1 713 9 discriminator 1 view .LVU602
 2048 013a AB42     		cmp	r3, r5
 2049 013c 91D9     		bls	.L168
 715:Drivers/STM32H7xx_HAL_Driver/Src/stm32h7xx_hal_flash_ex.c ****         }
 2050              		.loc 1 715 11 is_stmt 1 discriminator 3 view .LVU603
 2051 013e 0221     		movs	r1, #2
 2052 0140 2846     		mov	r0, r5
 2053 0142 FFF7FEFF 		bl	FLASH_CRC_AddSector
 2054              	.LVL139:
 713:Drivers/STM32H7xx_HAL_Driver/Src/stm32h7xx_hal_flash_ex.c ****         {
 2055              		.loc 1 713 103 discriminator 3 view .LVU604
 713:Drivers/STM32H7xx_HAL_Driver/Src/stm32h7xx_hal_flash_ex.c ****         {
 2056              		.loc 1 713 115 is_stmt 0 discriminator 3 view .LVU605
 2057 0146 0135     		adds	r5, r5, #1
 2058              	.LVL140:
 713:Drivers/STM32H7xx_HAL_Driver/Src/stm32h7xx_hal_flash_ex.c ****         {
 2059              		.loc 1 713 115 discriminator 3 view .LVU606
 2060 0148 F4E7     		b	.L166
 2061              	.LVL141:
 2062              	.L169:
 726:Drivers/STM32H7xx_HAL_Driver/Src/stm32h7xx_hal_flash_ex.c ****       }
 2063              		.loc 1 726 9 is_stmt 1 view .LVU607
 2064 014a 0222     		movs	r2, #2
 2065 014c A169     		ldr	r1, [r4, #24]
 2066 014e 6069     		ldr	r0, [r4, #20]
 2067 0150 FFF7FEFF 		bl	FLASH_CRC_SelectAddress
 2068              	.LVL142:
 2069 0154 85E7     		b	.L168
 2070              	.L175:
 2071 0156 00BF     		.align	2
 2072              	.L174:
 2073 0158 00200052 		.word	1375739904
 2074 015c 00014000 		.word	4194560
 2075              		.cfi_endproc
 2076              	.LFE149:
 2078              		.section	.text.FLASH_Erase_Sector,"ax",%progbits
 2079              		.align	1
 2080              		.global	FLASH_Erase_Sector
 2081              		.syntax unified
 2082              		.thumb
 2083              		.thumb_func
 2084              		.fpu fpv5-d16
 2086              	FLASH_Erase_Sector:
 2087              	.LVL143:
 2088              	.LFB151:
 853:Drivers/STM32H7xx_HAL_Driver/Src/stm32h7xx_hal_flash_ex.c ****   assert_param(IS_FLASH_SECTOR(Sector));
 2089              		.loc 1 853 1 view -0
ARM GAS  C:\Users\chesn\AppData\Local\Temp\ccAfRyoq.s 			page 71


 2090              		.cfi_startproc
 2091              		@ args = 0, pretend = 0, frame = 0
 2092              		@ frame_needed = 0, uses_anonymous_args = 0
 2093              		@ link register save eliminated.
 853:Drivers/STM32H7xx_HAL_Driver/Src/stm32h7xx_hal_flash_ex.c ****   assert_param(IS_FLASH_SECTOR(Sector));
 2094              		.loc 1 853 1 is_stmt 0 view .LVU609
 2095 0000 30B4     		push	{r4, r5}
 2096              	.LCFI22:
 2097              		.cfi_def_cfa_offset 8
 2098              		.cfi_offset 4, -8
 2099              		.cfi_offset 5, -4
 854:Drivers/STM32H7xx_HAL_Driver/Src/stm32h7xx_hal_flash_ex.c ****   assert_param(IS_FLASH_BANK_EXCLUSIVE(Banks));
 2100              		.loc 1 854 3 is_stmt 1 view .LVU610
 855:Drivers/STM32H7xx_HAL_Driver/Src/stm32h7xx_hal_flash_ex.c **** #if defined (FLASH_CR_PSIZE)
 2101              		.loc 1 855 3 view .LVU611
 857:Drivers/STM32H7xx_HAL_Driver/Src/stm32h7xx_hal_flash_ex.c **** #else
 2102              		.loc 1 857 3 view .LVU612
 862:Drivers/STM32H7xx_HAL_Driver/Src/stm32h7xx_hal_flash_ex.c ****   {
 2103              		.loc 1 862 3 view .LVU613
 862:Drivers/STM32H7xx_HAL_Driver/Src/stm32h7xx_hal_flash_ex.c ****   {
 2104              		.loc 1 862 5 is_stmt 0 view .LVU614
 2105 0002 11F0010F 		tst	r1, #1
 2106 0006 0BD0     		beq	.L177
 866:Drivers/STM32H7xx_HAL_Driver/Src/stm32h7xx_hal_flash_ex.c **** 
 2107              		.loc 1 866 5 is_stmt 1 view .LVU615
 866:Drivers/STM32H7xx_HAL_Driver/Src/stm32h7xx_hal_flash_ex.c **** 
 2108              		.loc 1 866 16 is_stmt 0 view .LVU616
 2109 0008 104C     		ldr	r4, .L180
 2110 000a E368     		ldr	r3, [r4, #12]
 2111 000c 23F4E663 		bic	r3, r3, #1840
 2112 0010 E360     		str	r3, [r4, #12]
 868:Drivers/STM32H7xx_HAL_Driver/Src/stm32h7xx_hal_flash_ex.c **** #else
 2113              		.loc 1 868 5 is_stmt 1 view .LVU617
 868:Drivers/STM32H7xx_HAL_Driver/Src/stm32h7xx_hal_flash_ex.c **** #else
 2114              		.loc 1 868 16 is_stmt 0 view .LVU618
 2115 0012 E368     		ldr	r3, [r4, #12]
 868:Drivers/STM32H7xx_HAL_Driver/Src/stm32h7xx_hal_flash_ex.c **** #else
 2116              		.loc 1 868 48 view .LVU619
 2117 0014 42EA0025 		orr	r5, r2, r0, lsl #8
 868:Drivers/STM32H7xx_HAL_Driver/Src/stm32h7xx_hal_flash_ex.c **** #else
 2118              		.loc 1 868 16 view .LVU620
 2119 0018 2B43     		orrs	r3, r3, r5
 2120 001a 43F08403 		orr	r3, r3, #132
 2121 001e E360     		str	r3, [r4, #12]
 2122              	.L177:
 877:Drivers/STM32H7xx_HAL_Driver/Src/stm32h7xx_hal_flash_ex.c ****   {
 2123              		.loc 1 877 3 is_stmt 1 view .LVU621
 877:Drivers/STM32H7xx_HAL_Driver/Src/stm32h7xx_hal_flash_ex.c ****   {
 2124              		.loc 1 877 5 is_stmt 0 view .LVU622
 2125 0020 11F0020F 		tst	r1, #2
 2126 0024 0FD0     		beq	.L176
 881:Drivers/STM32H7xx_HAL_Driver/Src/stm32h7xx_hal_flash_ex.c **** 
 2127              		.loc 1 881 5 is_stmt 1 view .LVU623
 881:Drivers/STM32H7xx_HAL_Driver/Src/stm32h7xx_hal_flash_ex.c **** 
 2128              		.loc 1 881 16 is_stmt 0 view .LVU624
 2129 0026 0949     		ldr	r1, .L180
 2130              	.LVL144:
ARM GAS  C:\Users\chesn\AppData\Local\Temp\ccAfRyoq.s 			page 72


 881:Drivers/STM32H7xx_HAL_Driver/Src/stm32h7xx_hal_flash_ex.c **** 
 2131              		.loc 1 881 16 view .LVU625
 2132 0028 D1F80C31 		ldr	r3, [r1, #268]
 2133 002c 23F4E663 		bic	r3, r3, #1840
 2134 0030 C1F80C31 		str	r3, [r1, #268]
 883:Drivers/STM32H7xx_HAL_Driver/Src/stm32h7xx_hal_flash_ex.c **** #else
 2135              		.loc 1 883 5 is_stmt 1 view .LVU626
 883:Drivers/STM32H7xx_HAL_Driver/Src/stm32h7xx_hal_flash_ex.c **** #else
 2136              		.loc 1 883 16 is_stmt 0 view .LVU627
 2137 0034 D1F80C31 		ldr	r3, [r1, #268]
 883:Drivers/STM32H7xx_HAL_Driver/Src/stm32h7xx_hal_flash_ex.c **** #else
 2138              		.loc 1 883 49 view .LVU628
 2139 0038 42EA0022 		orr	r2, r2, r0, lsl #8
 2140              	.LVL145:
 883:Drivers/STM32H7xx_HAL_Driver/Src/stm32h7xx_hal_flash_ex.c **** #else
 2141              		.loc 1 883 16 view .LVU629
 2142 003c 1A43     		orrs	r2, r2, r3
 2143 003e 42F08402 		orr	r2, r2, #132
 2144 0042 C1F80C21 		str	r2, [r1, #268]
 2145              	.L176:
 891:Drivers/STM32H7xx_HAL_Driver/Src/stm32h7xx_hal_flash_ex.c **** 
 2146              		.loc 1 891 1 view .LVU630
 2147 0046 30BC     		pop	{r4, r5}
 2148              	.LCFI23:
 2149              		.cfi_restore 5
 2150              		.cfi_restore 4
 2151              		.cfi_def_cfa_offset 0
 2152 0048 7047     		bx	lr
 2153              	.L181:
 2154 004a 00BF     		.align	2
 2155              	.L180:
 2156 004c 00200052 		.word	1375739904
 2157              		.cfi_endproc
 2158              	.LFE151:
 2160              		.section	.text.HAL_FLASHEx_Erase,"ax",%progbits
 2161              		.align	1
 2162              		.global	HAL_FLASHEx_Erase
 2163              		.syntax unified
 2164              		.thumb
 2165              		.thumb_func
 2166              		.fpu fpv5-d16
 2168              	HAL_FLASHEx_Erase:
 2169              	.LVL146:
 2170              	.LFB141:
 167:Drivers/STM32H7xx_HAL_Driver/Src/stm32h7xx_hal_flash_ex.c ****   HAL_StatusTypeDef status = HAL_OK;
 2171              		.loc 1 167 1 is_stmt 1 view -0
 2172              		.cfi_startproc
 2173              		@ args = 0, pretend = 0, frame = 0
 2174              		@ frame_needed = 0, uses_anonymous_args = 0
 167:Drivers/STM32H7xx_HAL_Driver/Src/stm32h7xx_hal_flash_ex.c ****   HAL_StatusTypeDef status = HAL_OK;
 2175              		.loc 1 167 1 is_stmt 0 view .LVU632
 2176 0000 F8B5     		push	{r3, r4, r5, r6, r7, lr}
 2177              	.LCFI24:
 2178              		.cfi_def_cfa_offset 24
 2179              		.cfi_offset 3, -24
 2180              		.cfi_offset 4, -20
 2181              		.cfi_offset 5, -16
ARM GAS  C:\Users\chesn\AppData\Local\Temp\ccAfRyoq.s 			page 73


 2182              		.cfi_offset 6, -12
 2183              		.cfi_offset 7, -8
 2184              		.cfi_offset 14, -4
 168:Drivers/STM32H7xx_HAL_Driver/Src/stm32h7xx_hal_flash_ex.c ****   uint32_t sector_index;
 2185              		.loc 1 168 3 is_stmt 1 view .LVU633
 2186              	.LVL147:
 169:Drivers/STM32H7xx_HAL_Driver/Src/stm32h7xx_hal_flash_ex.c **** 
 2187              		.loc 1 169 3 view .LVU634
 172:Drivers/STM32H7xx_HAL_Driver/Src/stm32h7xx_hal_flash_ex.c ****   assert_param(IS_FLASH_BANK(pEraseInit->Banks));
 2188              		.loc 1 172 3 view .LVU635
 173:Drivers/STM32H7xx_HAL_Driver/Src/stm32h7xx_hal_flash_ex.c **** 
 2189              		.loc 1 173 3 view .LVU636
 176:Drivers/STM32H7xx_HAL_Driver/Src/stm32h7xx_hal_flash_ex.c **** 
 2190              		.loc 1 176 3 view .LVU637
 176:Drivers/STM32H7xx_HAL_Driver/Src/stm32h7xx_hal_flash_ex.c **** 
 2191              		.loc 1 176 3 view .LVU638
 2192 0002 474B     		ldr	r3, .L210
 2193 0004 1B7D     		ldrb	r3, [r3, #20]	@ zero_extendqisi2
 2194 0006 012B     		cmp	r3, #1
 2195 0008 00F08880 		beq	.L196
 2196 000c 0446     		mov	r4, r0
 2197 000e 0F46     		mov	r7, r1
 176:Drivers/STM32H7xx_HAL_Driver/Src/stm32h7xx_hal_flash_ex.c **** 
 2198              		.loc 1 176 3 discriminator 2 view .LVU639
 2199 0010 434B     		ldr	r3, .L210
 2200 0012 0122     		movs	r2, #1
 2201 0014 1A75     		strb	r2, [r3, #20]
 176:Drivers/STM32H7xx_HAL_Driver/Src/stm32h7xx_hal_flash_ex.c **** 
 2202              		.loc 1 176 3 discriminator 2 view .LVU640
 179:Drivers/STM32H7xx_HAL_Driver/Src/stm32h7xx_hal_flash_ex.c **** 
 2203              		.loc 1 179 3 discriminator 2 view .LVU641
 179:Drivers/STM32H7xx_HAL_Driver/Src/stm32h7xx_hal_flash_ex.c **** 
 2204              		.loc 1 179 20 is_stmt 0 discriminator 2 view .LVU642
 2205 0016 0022     		movs	r2, #0
 2206 0018 9A61     		str	r2, [r3, #24]
 182:Drivers/STM32H7xx_HAL_Driver/Src/stm32h7xx_hal_flash_ex.c ****   {
 2207              		.loc 1 182 3 is_stmt 1 discriminator 2 view .LVU643
 182:Drivers/STM32H7xx_HAL_Driver/Src/stm32h7xx_hal_flash_ex.c ****   {
 2208              		.loc 1 182 17 is_stmt 0 discriminator 2 view .LVU644
 2209 001a 4368     		ldr	r3, [r0, #4]
 182:Drivers/STM32H7xx_HAL_Driver/Src/stm32h7xx_hal_flash_ex.c ****   {
 2210              		.loc 1 182 5 discriminator 2 view .LVU645
 2211 001c 13F0010F 		tst	r3, #1
 2212 0020 0DD1     		bne	.L203
 168:Drivers/STM32H7xx_HAL_Driver/Src/stm32h7xx_hal_flash_ex.c ****   uint32_t sector_index;
 2213              		.loc 1 168 21 view .LVU646
 2214 0022 0025     		movs	r5, #0
 2215              	.LVL148:
 2216              	.L184:
 191:Drivers/STM32H7xx_HAL_Driver/Src/stm32h7xx_hal_flash_ex.c ****   {
 2217              		.loc 1 191 3 is_stmt 1 view .LVU647
 191:Drivers/STM32H7xx_HAL_Driver/Src/stm32h7xx_hal_flash_ex.c ****   {
 2218              		.loc 1 191 17 is_stmt 0 view .LVU648
 2219 0024 6368     		ldr	r3, [r4, #4]
 191:Drivers/STM32H7xx_HAL_Driver/Src/stm32h7xx_hal_flash_ex.c ****   {
 2220              		.loc 1 191 5 view .LVU649
 2221 0026 13F0020F 		tst	r3, #2
ARM GAS  C:\Users\chesn\AppData\Local\Temp\ccAfRyoq.s 			page 74


 2222 002a 12D1     		bne	.L204
 2223              	.L185:
 199:Drivers/STM32H7xx_HAL_Driver/Src/stm32h7xx_hal_flash_ex.c ****   {
 2224              		.loc 1 199 3 is_stmt 1 view .LVU650
 199:Drivers/STM32H7xx_HAL_Driver/Src/stm32h7xx_hal_flash_ex.c ****   {
 2225              		.loc 1 199 5 is_stmt 0 view .LVU651
 2226 002c CDB9     		cbnz	r5, .L186
 201:Drivers/STM32H7xx_HAL_Driver/Src/stm32h7xx_hal_flash_ex.c ****     {
 2227              		.loc 1 201 5 is_stmt 1 view .LVU652
 201:Drivers/STM32H7xx_HAL_Driver/Src/stm32h7xx_hal_flash_ex.c ****     {
 2228              		.loc 1 201 18 is_stmt 0 view .LVU653
 2229 002e 2368     		ldr	r3, [r4]
 201:Drivers/STM32H7xx_HAL_Driver/Src/stm32h7xx_hal_flash_ex.c ****     {
 2230              		.loc 1 201 7 view .LVU654
 2231 0030 012B     		cmp	r3, #1
 2232 0032 1BD0     		beq	.L205
 229:Drivers/STM32H7xx_HAL_Driver/Src/stm32h7xx_hal_flash_ex.c **** 
 2233              		.loc 1 229 7 is_stmt 1 view .LVU655
 229:Drivers/STM32H7xx_HAL_Driver/Src/stm32h7xx_hal_flash_ex.c **** 
 2234              		.loc 1 229 20 is_stmt 0 view .LVU656
 2235 0034 4FF0FF33 		mov	r3, #-1
 2236 0038 3B60     		str	r3, [r7]
 232:Drivers/STM32H7xx_HAL_Driver/Src/stm32h7xx_hal_flash_ex.c ****       {
 2237              		.loc 1 232 7 is_stmt 1 view .LVU657
 232:Drivers/STM32H7xx_HAL_Driver/Src/stm32h7xx_hal_flash_ex.c ****       {
 2238              		.loc 1 232 24 is_stmt 0 view .LVU658
 2239 003a A668     		ldr	r6, [r4, #8]
 2240              	.LVL149:
 232:Drivers/STM32H7xx_HAL_Driver/Src/stm32h7xx_hal_flash_ex.c ****       {
 2241              		.loc 1 232 7 view .LVU659
 2242 003c 59E0     		b	.L191
 2243              	.LVL150:
 2244              	.L203:
 184:Drivers/STM32H7xx_HAL_Driver/Src/stm32h7xx_hal_flash_ex.c ****     {
 2245              		.loc 1 184 5 is_stmt 1 view .LVU660
 184:Drivers/STM32H7xx_HAL_Driver/Src/stm32h7xx_hal_flash_ex.c ****     {
 2246              		.loc 1 184 8 is_stmt 0 view .LVU661
 2247 003e 0121     		movs	r1, #1
 2248              	.LVL151:
 184:Drivers/STM32H7xx_HAL_Driver/Src/stm32h7xx_hal_flash_ex.c ****     {
 2249              		.loc 1 184 8 view .LVU662
 2250 0040 4CF25030 		movw	r0, #50000
 2251              	.LVL152:
 184:Drivers/STM32H7xx_HAL_Driver/Src/stm32h7xx_hal_flash_ex.c ****     {
 2252              		.loc 1 184 8 view .LVU663
 2253 0044 FFF7FEFF 		bl	FLASH_WaitForLastOperation
 2254              	.LVL153:
 184:Drivers/STM32H7xx_HAL_Driver/Src/stm32h7xx_hal_flash_ex.c ****     {
 2255              		.loc 1 184 7 view .LVU664
 2256 0048 0546     		mov	r5, r0
 2257 004a 0028     		cmp	r0, #0
 2258 004c EAD0     		beq	.L184
 186:Drivers/STM32H7xx_HAL_Driver/Src/stm32h7xx_hal_flash_ex.c ****     }
 2259              		.loc 1 186 14 view .LVU665
 2260 004e 0125     		movs	r5, #1
 2261 0050 E8E7     		b	.L184
 2262              	.LVL154:
ARM GAS  C:\Users\chesn\AppData\Local\Temp\ccAfRyoq.s 			page 75


 2263              	.L204:
 193:Drivers/STM32H7xx_HAL_Driver/Src/stm32h7xx_hal_flash_ex.c ****     {
 2264              		.loc 1 193 5 is_stmt 1 view .LVU666
 193:Drivers/STM32H7xx_HAL_Driver/Src/stm32h7xx_hal_flash_ex.c ****     {
 2265              		.loc 1 193 8 is_stmt 0 view .LVU667
 2266 0052 0221     		movs	r1, #2
 2267 0054 4CF25030 		movw	r0, #50000
 2268 0058 FFF7FEFF 		bl	FLASH_WaitForLastOperation
 2269              	.LVL155:
 193:Drivers/STM32H7xx_HAL_Driver/Src/stm32h7xx_hal_flash_ex.c ****     {
 2270              		.loc 1 193 7 view .LVU668
 2271 005c 0028     		cmp	r0, #0
 2272 005e E5D0     		beq	.L185
 195:Drivers/STM32H7xx_HAL_Driver/Src/stm32h7xx_hal_flash_ex.c ****     }
 2273              		.loc 1 195 14 view .LVU669
 2274 0060 0125     		movs	r5, #1
 2275              	.LVL156:
 2276              	.L186:
 264:Drivers/STM32H7xx_HAL_Driver/Src/stm32h7xx_hal_flash_ex.c **** 
 2277              		.loc 1 264 3 is_stmt 1 view .LVU670
 264:Drivers/STM32H7xx_HAL_Driver/Src/stm32h7xx_hal_flash_ex.c **** 
 2278              		.loc 1 264 3 view .LVU671
 2279 0062 2F4B     		ldr	r3, .L210
 2280 0064 0022     		movs	r2, #0
 2281 0066 1A75     		strb	r2, [r3, #20]
 264:Drivers/STM32H7xx_HAL_Driver/Src/stm32h7xx_hal_flash_ex.c **** 
 2282              		.loc 1 264 3 view .LVU672
 266:Drivers/STM32H7xx_HAL_Driver/Src/stm32h7xx_hal_flash_ex.c **** }
 2283              		.loc 1 266 3 view .LVU673
 2284              	.LVL157:
 2285              	.L183:
 267:Drivers/STM32H7xx_HAL_Driver/Src/stm32h7xx_hal_flash_ex.c **** 
 2286              		.loc 1 267 1 is_stmt 0 view .LVU674
 2287 0068 2846     		mov	r0, r5
 2288 006a F8BD     		pop	{r3, r4, r5, r6, r7, pc}
 2289              	.LVL158:
 2290              	.L205:
 204:Drivers/STM32H7xx_HAL_Driver/Src/stm32h7xx_hal_flash_ex.c **** 
 2291              		.loc 1 204 7 is_stmt 1 view .LVU675
 2292 006c 6168     		ldr	r1, [r4, #4]
 2293 006e 2069     		ldr	r0, [r4, #16]
 2294 0070 FFF7FEFF 		bl	FLASH_MassErase
 2295              	.LVL159:
 207:Drivers/STM32H7xx_HAL_Driver/Src/stm32h7xx_hal_flash_ex.c ****       {
 2296              		.loc 1 207 7 view .LVU676
 207:Drivers/STM32H7xx_HAL_Driver/Src/stm32h7xx_hal_flash_ex.c ****       {
 2297              		.loc 1 207 21 is_stmt 0 view .LVU677
 2298 0074 6368     		ldr	r3, [r4, #4]
 207:Drivers/STM32H7xx_HAL_Driver/Src/stm32h7xx_hal_flash_ex.c ****       {
 2299              		.loc 1 207 9 view .LVU678
 2300 0076 13F0010F 		tst	r3, #1
 2301 007a 12D1     		bne	.L206
 2302              	.L188:
 216:Drivers/STM32H7xx_HAL_Driver/Src/stm32h7xx_hal_flash_ex.c ****       {
 2303              		.loc 1 216 7 is_stmt 1 view .LVU679
 216:Drivers/STM32H7xx_HAL_Driver/Src/stm32h7xx_hal_flash_ex.c ****       {
 2304              		.loc 1 216 21 is_stmt 0 view .LVU680
ARM GAS  C:\Users\chesn\AppData\Local\Temp\ccAfRyoq.s 			page 76


 2305 007c 6368     		ldr	r3, [r4, #4]
 216:Drivers/STM32H7xx_HAL_Driver/Src/stm32h7xx_hal_flash_ex.c ****       {
 2306              		.loc 1 216 9 view .LVU681
 2307 007e 13F0020F 		tst	r3, #2
 2308 0082 EED0     		beq	.L186
 218:Drivers/STM32H7xx_HAL_Driver/Src/stm32h7xx_hal_flash_ex.c ****         {
 2309              		.loc 1 218 9 is_stmt 1 view .LVU682
 218:Drivers/STM32H7xx_HAL_Driver/Src/stm32h7xx_hal_flash_ex.c ****         {
 2310              		.loc 1 218 12 is_stmt 0 view .LVU683
 2311 0084 0221     		movs	r1, #2
 2312 0086 4CF25030 		movw	r0, #50000
 2313 008a FFF7FEFF 		bl	FLASH_WaitForLastOperation
 2314              	.LVL160:
 218:Drivers/STM32H7xx_HAL_Driver/Src/stm32h7xx_hal_flash_ex.c ****         {
 2315              		.loc 1 218 11 view .LVU684
 2316 008e 00B1     		cbz	r0, .L190
 220:Drivers/STM32H7xx_HAL_Driver/Src/stm32h7xx_hal_flash_ex.c ****         }
 2317              		.loc 1 220 18 view .LVU685
 2318 0090 0125     		movs	r5, #1
 2319              	.LVL161:
 2320              	.L190:
 223:Drivers/STM32H7xx_HAL_Driver/Src/stm32h7xx_hal_flash_ex.c ****       }
 2321              		.loc 1 223 9 is_stmt 1 view .LVU686
 223:Drivers/STM32H7xx_HAL_Driver/Src/stm32h7xx_hal_flash_ex.c ****       }
 2322              		.loc 1 223 20 is_stmt 0 view .LVU687
 2323 0092 244A     		ldr	r2, .L210+4
 2324 0094 D2F80C31 		ldr	r3, [r2, #268]
 2325 0098 23F00803 		bic	r3, r3, #8
 2326 009c C2F80C31 		str	r3, [r2, #268]
 2327 00a0 DFE7     		b	.L186
 2328              	.L206:
 209:Drivers/STM32H7xx_HAL_Driver/Src/stm32h7xx_hal_flash_ex.c ****         {
 2329              		.loc 1 209 9 is_stmt 1 view .LVU688
 209:Drivers/STM32H7xx_HAL_Driver/Src/stm32h7xx_hal_flash_ex.c ****         {
 2330              		.loc 1 209 12 is_stmt 0 view .LVU689
 2331 00a2 0121     		movs	r1, #1
 2332 00a4 4CF25030 		movw	r0, #50000
 2333 00a8 FFF7FEFF 		bl	FLASH_WaitForLastOperation
 2334              	.LVL162:
 209:Drivers/STM32H7xx_HAL_Driver/Src/stm32h7xx_hal_flash_ex.c ****         {
 2335              		.loc 1 209 11 view .LVU690
 2336 00ac 00B1     		cbz	r0, .L189
 211:Drivers/STM32H7xx_HAL_Driver/Src/stm32h7xx_hal_flash_ex.c ****         }
 2337              		.loc 1 211 18 view .LVU691
 2338 00ae 0125     		movs	r5, #1
 2339              	.LVL163:
 2340              	.L189:
 214:Drivers/STM32H7xx_HAL_Driver/Src/stm32h7xx_hal_flash_ex.c ****       }
 2341              		.loc 1 214 9 is_stmt 1 view .LVU692
 214:Drivers/STM32H7xx_HAL_Driver/Src/stm32h7xx_hal_flash_ex.c ****       }
 2342              		.loc 1 214 20 is_stmt 0 view .LVU693
 2343 00b0 1C4A     		ldr	r2, .L210+4
 2344 00b2 D368     		ldr	r3, [r2, #12]
 2345 00b4 23F00803 		bic	r3, r3, #8
 2346 00b8 D360     		str	r3, [r2, #12]
 2347 00ba DFE7     		b	.L188
 2348              	.LVL164:
ARM GAS  C:\Users\chesn\AppData\Local\Temp\ccAfRyoq.s 			page 77


 2349              	.L208:
 239:Drivers/STM32H7xx_HAL_Driver/Src/stm32h7xx_hal_flash_ex.c **** 
 2350              		.loc 1 239 11 is_stmt 1 view .LVU694
 239:Drivers/STM32H7xx_HAL_Driver/Src/stm32h7xx_hal_flash_ex.c **** 
 2351              		.loc 1 239 20 is_stmt 0 view .LVU695
 2352 00bc 0121     		movs	r1, #1
 2353 00be 4CF25030 		movw	r0, #50000
 2354 00c2 FFF7FEFF 		bl	FLASH_WaitForLastOperation
 2355              	.LVL165:
 2356 00c6 0546     		mov	r5, r0
 2357              	.LVL166:
 242:Drivers/STM32H7xx_HAL_Driver/Src/stm32h7xx_hal_flash_ex.c ****         }
 2358              		.loc 1 242 11 is_stmt 1 view .LVU696
 242:Drivers/STM32H7xx_HAL_Driver/Src/stm32h7xx_hal_flash_ex.c ****         }
 2359              		.loc 1 242 22 is_stmt 0 view .LVU697
 2360 00c8 164A     		ldr	r2, .L210+4
 2361 00ca D168     		ldr	r1, [r2, #12]
 2362 00cc 164B     		ldr	r3, .L210+8
 2363 00ce 0B40     		ands	r3, r3, r1
 2364 00d0 D360     		str	r3, [r2, #12]
 2365 00d2 1CE0     		b	.L192
 2366              	.L209:
 247:Drivers/STM32H7xx_HAL_Driver/Src/stm32h7xx_hal_flash_ex.c **** 
 2367              		.loc 1 247 11 is_stmt 1 view .LVU698
 247:Drivers/STM32H7xx_HAL_Driver/Src/stm32h7xx_hal_flash_ex.c **** 
 2368              		.loc 1 247 20 is_stmt 0 view .LVU699
 2369 00d4 0221     		movs	r1, #2
 2370 00d6 4CF25030 		movw	r0, #50000
 2371 00da FFF7FEFF 		bl	FLASH_WaitForLastOperation
 2372              	.LVL167:
 2373 00de 0546     		mov	r5, r0
 2374              	.LVL168:
 250:Drivers/STM32H7xx_HAL_Driver/Src/stm32h7xx_hal_flash_ex.c ****         }
 2375              		.loc 1 250 11 is_stmt 1 view .LVU700
 250:Drivers/STM32H7xx_HAL_Driver/Src/stm32h7xx_hal_flash_ex.c ****         }
 2376              		.loc 1 250 22 is_stmt 0 view .LVU701
 2377 00e0 104A     		ldr	r2, .L210+4
 2378 00e2 D2F80C11 		ldr	r1, [r2, #268]
 2379 00e6 104B     		ldr	r3, .L210+8
 2380 00e8 0B40     		ands	r3, r3, r1
 2381 00ea C2F80C31 		str	r3, [r2, #268]
 2382              	.L193:
 253:Drivers/STM32H7xx_HAL_Driver/Src/stm32h7xx_hal_flash_ex.c ****         {
 2383              		.loc 1 253 9 is_stmt 1 view .LVU702
 253:Drivers/STM32H7xx_HAL_Driver/Src/stm32h7xx_hal_flash_ex.c ****         {
 2384              		.loc 1 253 11 is_stmt 0 view .LVU703
 2385 00ee 9DB9     		cbnz	r5, .L207
 232:Drivers/STM32H7xx_HAL_Driver/Src/stm32h7xx_hal_flash_ex.c ****       {
 2386              		.loc 1 232 107 is_stmt 1 discriminator 2 view .LVU704
 232:Drivers/STM32H7xx_HAL_Driver/Src/stm32h7xx_hal_flash_ex.c ****       {
 2387              		.loc 1 232 119 is_stmt 0 discriminator 2 view .LVU705
 2388 00f0 0136     		adds	r6, r6, #1
 2389              	.LVL169:
 2390              	.L191:
 232:Drivers/STM32H7xx_HAL_Driver/Src/stm32h7xx_hal_flash_ex.c ****       {
 2391              		.loc 1 232 46 is_stmt 1 discriminator 1 view .LVU706
 232:Drivers/STM32H7xx_HAL_Driver/Src/stm32h7xx_hal_flash_ex.c ****       {
ARM GAS  C:\Users\chesn\AppData\Local\Temp\ccAfRyoq.s 			page 78


 2392              		.loc 1 232 72 is_stmt 0 discriminator 1 view .LVU707
 2393 00f2 E368     		ldr	r3, [r4, #12]
 232:Drivers/STM32H7xx_HAL_Driver/Src/stm32h7xx_hal_flash_ex.c ****       {
 2394              		.loc 1 232 96 discriminator 1 view .LVU708
 2395 00f4 A268     		ldr	r2, [r4, #8]
 232:Drivers/STM32H7xx_HAL_Driver/Src/stm32h7xx_hal_flash_ex.c ****       {
 2396              		.loc 1 232 84 discriminator 1 view .LVU709
 2397 00f6 1344     		add	r3, r3, r2
 232:Drivers/STM32H7xx_HAL_Driver/Src/stm32h7xx_hal_flash_ex.c ****       {
 2398              		.loc 1 232 7 discriminator 1 view .LVU710
 2399 00f8 B342     		cmp	r3, r6
 2400 00fa B2D9     		bls	.L186
 234:Drivers/STM32H7xx_HAL_Driver/Src/stm32h7xx_hal_flash_ex.c **** 
 2401              		.loc 1 234 9 is_stmt 1 view .LVU711
 2402 00fc 2269     		ldr	r2, [r4, #16]
 2403 00fe 6168     		ldr	r1, [r4, #4]
 2404 0100 3046     		mov	r0, r6
 2405 0102 FFF7FEFF 		bl	FLASH_Erase_Sector
 2406              	.LVL170:
 236:Drivers/STM32H7xx_HAL_Driver/Src/stm32h7xx_hal_flash_ex.c ****         {
 2407              		.loc 1 236 9 view .LVU712
 236:Drivers/STM32H7xx_HAL_Driver/Src/stm32h7xx_hal_flash_ex.c ****         {
 2408              		.loc 1 236 23 is_stmt 0 view .LVU713
 2409 0106 6368     		ldr	r3, [r4, #4]
 236:Drivers/STM32H7xx_HAL_Driver/Src/stm32h7xx_hal_flash_ex.c ****         {
 2410              		.loc 1 236 11 view .LVU714
 2411 0108 13F0010F 		tst	r3, #1
 2412 010c D6D1     		bne	.L208
 2413              	.L192:
 244:Drivers/STM32H7xx_HAL_Driver/Src/stm32h7xx_hal_flash_ex.c ****         {
 2414              		.loc 1 244 9 is_stmt 1 view .LVU715
 244:Drivers/STM32H7xx_HAL_Driver/Src/stm32h7xx_hal_flash_ex.c ****         {
 2415              		.loc 1 244 23 is_stmt 0 view .LVU716
 2416 010e 6368     		ldr	r3, [r4, #4]
 244:Drivers/STM32H7xx_HAL_Driver/Src/stm32h7xx_hal_flash_ex.c ****         {
 2417              		.loc 1 244 11 view .LVU717
 2418 0110 13F0020F 		tst	r3, #2
 2419 0114 EBD0     		beq	.L193
 244:Drivers/STM32H7xx_HAL_Driver/Src/stm32h7xx_hal_flash_ex.c ****         {
 2420              		.loc 1 244 11 view .LVU718
 2421 0116 DDE7     		b	.L209
 2422              	.L207:
 256:Drivers/STM32H7xx_HAL_Driver/Src/stm32h7xx_hal_flash_ex.c ****           break;
 2423              		.loc 1 256 11 is_stmt 1 view .LVU719
 256:Drivers/STM32H7xx_HAL_Driver/Src/stm32h7xx_hal_flash_ex.c ****           break;
 2424              		.loc 1 256 24 is_stmt 0 view .LVU720
 2425 0118 3E60     		str	r6, [r7]
 257:Drivers/STM32H7xx_HAL_Driver/Src/stm32h7xx_hal_flash_ex.c ****         }
 2426              		.loc 1 257 11 is_stmt 1 view .LVU721
 2427 011a A2E7     		b	.L186
 2428              	.LVL171:
 2429              	.L196:
 176:Drivers/STM32H7xx_HAL_Driver/Src/stm32h7xx_hal_flash_ex.c **** 
 2430              		.loc 1 176 3 is_stmt 0 view .LVU722
 2431 011c 0225     		movs	r5, #2
 2432 011e A3E7     		b	.L183
 2433              	.L211:
ARM GAS  C:\Users\chesn\AppData\Local\Temp\ccAfRyoq.s 			page 79


 2434              		.align	2
 2435              	.L210:
 2436 0120 00000000 		.word	pFlash
 2437 0124 00200052 		.word	1375739904
 2438 0128 FBF8FFFF 		.word	-1797
 2439              		.cfi_endproc
 2440              	.LFE141:
 2442              		.section	.text.HAL_FLASHEx_Erase_IT,"ax",%progbits
 2443              		.align	1
 2444              		.global	HAL_FLASHEx_Erase_IT
 2445              		.syntax unified
 2446              		.thumb
 2447              		.thumb_func
 2448              		.fpu fpv5-d16
 2450              	HAL_FLASHEx_Erase_IT:
 2451              	.LVL172:
 2452              	.LFB142:
 277:Drivers/STM32H7xx_HAL_Driver/Src/stm32h7xx_hal_flash_ex.c ****   HAL_StatusTypeDef status = HAL_OK;
 2453              		.loc 1 277 1 is_stmt 1 view -0
 2454              		.cfi_startproc
 2455              		@ args = 0, pretend = 0, frame = 0
 2456              		@ frame_needed = 0, uses_anonymous_args = 0
 277:Drivers/STM32H7xx_HAL_Driver/Src/stm32h7xx_hal_flash_ex.c ****   HAL_StatusTypeDef status = HAL_OK;
 2457              		.loc 1 277 1 is_stmt 0 view .LVU724
 2458 0000 38B5     		push	{r3, r4, r5, lr}
 2459              	.LCFI25:
 2460              		.cfi_def_cfa_offset 16
 2461              		.cfi_offset 3, -16
 2462              		.cfi_offset 4, -12
 2463              		.cfi_offset 5, -8
 2464              		.cfi_offset 14, -4
 278:Drivers/STM32H7xx_HAL_Driver/Src/stm32h7xx_hal_flash_ex.c **** 
 2465              		.loc 1 278 3 is_stmt 1 view .LVU725
 2466              	.LVL173:
 281:Drivers/STM32H7xx_HAL_Driver/Src/stm32h7xx_hal_flash_ex.c ****   assert_param(IS_FLASH_BANK(pEraseInit->Banks));
 2467              		.loc 1 281 3 view .LVU726
 282:Drivers/STM32H7xx_HAL_Driver/Src/stm32h7xx_hal_flash_ex.c **** 
 2468              		.loc 1 282 3 view .LVU727
 285:Drivers/STM32H7xx_HAL_Driver/Src/stm32h7xx_hal_flash_ex.c **** 
 2469              		.loc 1 285 3 view .LVU728
 285:Drivers/STM32H7xx_HAL_Driver/Src/stm32h7xx_hal_flash_ex.c **** 
 2470              		.loc 1 285 3 view .LVU729
 2471 0002 374B     		ldr	r3, .L237
 2472 0004 1B7D     		ldrb	r3, [r3, #20]	@ zero_extendqisi2
 2473 0006 012B     		cmp	r3, #1
 2474 0008 68D0     		beq	.L226
 2475 000a 0446     		mov	r4, r0
 285:Drivers/STM32H7xx_HAL_Driver/Src/stm32h7xx_hal_flash_ex.c **** 
 2476              		.loc 1 285 3 discriminator 2 view .LVU730
 2477 000c 344B     		ldr	r3, .L237
 2478 000e 0122     		movs	r2, #1
 2479 0010 1A75     		strb	r2, [r3, #20]
 285:Drivers/STM32H7xx_HAL_Driver/Src/stm32h7xx_hal_flash_ex.c **** 
 2480              		.loc 1 285 3 discriminator 2 view .LVU731
 288:Drivers/STM32H7xx_HAL_Driver/Src/stm32h7xx_hal_flash_ex.c **** 
 2481              		.loc 1 288 3 discriminator 2 view .LVU732
 288:Drivers/STM32H7xx_HAL_Driver/Src/stm32h7xx_hal_flash_ex.c **** 
ARM GAS  C:\Users\chesn\AppData\Local\Temp\ccAfRyoq.s 			page 80


 2482              		.loc 1 288 20 is_stmt 0 discriminator 2 view .LVU733
 2483 0012 0022     		movs	r2, #0
 2484 0014 9A61     		str	r2, [r3, #24]
 291:Drivers/STM32H7xx_HAL_Driver/Src/stm32h7xx_hal_flash_ex.c ****   {
 2485              		.loc 1 291 3 is_stmt 1 discriminator 2 view .LVU734
 291:Drivers/STM32H7xx_HAL_Driver/Src/stm32h7xx_hal_flash_ex.c ****   {
 2486              		.loc 1 291 17 is_stmt 0 discriminator 2 view .LVU735
 2487 0016 4368     		ldr	r3, [r0, #4]
 291:Drivers/STM32H7xx_HAL_Driver/Src/stm32h7xx_hal_flash_ex.c ****   {
 2488              		.loc 1 291 5 discriminator 2 view .LVU736
 2489 0018 13F0010F 		tst	r3, #1
 2490 001c 0AD1     		bne	.L231
 278:Drivers/STM32H7xx_HAL_Driver/Src/stm32h7xx_hal_flash_ex.c **** 
 2491              		.loc 1 278 21 view .LVU737
 2492 001e 0025     		movs	r5, #0
 2493              	.LVL174:
 2494              	.L214:
 299:Drivers/STM32H7xx_HAL_Driver/Src/stm32h7xx_hal_flash_ex.c ****   {
 2495              		.loc 1 299 3 is_stmt 1 view .LVU738
 299:Drivers/STM32H7xx_HAL_Driver/Src/stm32h7xx_hal_flash_ex.c ****   {
 2496              		.loc 1 299 17 is_stmt 0 view .LVU739
 2497 0020 6368     		ldr	r3, [r4, #4]
 299:Drivers/STM32H7xx_HAL_Driver/Src/stm32h7xx_hal_flash_ex.c ****   {
 2498              		.loc 1 299 5 view .LVU740
 2499 0022 13F0020F 		tst	r3, #2
 2500 0026 0FD1     		bne	.L232
 2501              	.L215:
 307:Drivers/STM32H7xx_HAL_Driver/Src/stm32h7xx_hal_flash_ex.c ****   {
 2502              		.loc 1 307 3 is_stmt 1 view .LVU741
 307:Drivers/STM32H7xx_HAL_Driver/Src/stm32h7xx_hal_flash_ex.c ****   {
 2503              		.loc 1 307 6 is_stmt 0 view .LVU742
 2504 0028 BDB1     		cbz	r5, .L217
 2505              	.LVL175:
 2506              	.L216:
 310:Drivers/STM32H7xx_HAL_Driver/Src/stm32h7xx_hal_flash_ex.c ****   }
 2507              		.loc 1 310 5 is_stmt 1 view .LVU743
 310:Drivers/STM32H7xx_HAL_Driver/Src/stm32h7xx_hal_flash_ex.c ****   }
 2508              		.loc 1 310 5 view .LVU744
 2509 002a 2D4B     		ldr	r3, .L237
 2510 002c 0022     		movs	r2, #0
 2511 002e 1A75     		strb	r2, [r3, #20]
 310:Drivers/STM32H7xx_HAL_Driver/Src/stm32h7xx_hal_flash_ex.c ****   }
 2512              		.loc 1 310 5 view .LVU745
 2513              	.LVL176:
 2514              	.L213:
 377:Drivers/STM32H7xx_HAL_Driver/Src/stm32h7xx_hal_flash_ex.c **** 
 2515              		.loc 1 377 1 is_stmt 0 view .LVU746
 2516 0030 2846     		mov	r0, r5
 2517 0032 38BD     		pop	{r3, r4, r5, pc}
 2518              	.LVL177:
 2519              	.L231:
 293:Drivers/STM32H7xx_HAL_Driver/Src/stm32h7xx_hal_flash_ex.c ****     {
 2520              		.loc 1 293 5 is_stmt 1 view .LVU747
 293:Drivers/STM32H7xx_HAL_Driver/Src/stm32h7xx_hal_flash_ex.c ****     {
 2521              		.loc 1 293 8 is_stmt 0 view .LVU748
 2522 0034 0121     		movs	r1, #1
 2523 0036 4CF25030 		movw	r0, #50000
ARM GAS  C:\Users\chesn\AppData\Local\Temp\ccAfRyoq.s 			page 81


 2524              	.LVL178:
 293:Drivers/STM32H7xx_HAL_Driver/Src/stm32h7xx_hal_flash_ex.c ****     {
 2525              		.loc 1 293 8 view .LVU749
 2526 003a FFF7FEFF 		bl	FLASH_WaitForLastOperation
 2527              	.LVL179:
 293:Drivers/STM32H7xx_HAL_Driver/Src/stm32h7xx_hal_flash_ex.c ****     {
 2528              		.loc 1 293 7 view .LVU750
 2529 003e 0546     		mov	r5, r0
 2530 0040 0028     		cmp	r0, #0
 2531 0042 EDD0     		beq	.L214
 295:Drivers/STM32H7xx_HAL_Driver/Src/stm32h7xx_hal_flash_ex.c ****     }
 2532              		.loc 1 295 14 view .LVU751
 2533 0044 0125     		movs	r5, #1
 2534 0046 EBE7     		b	.L214
 2535              	.LVL180:
 2536              	.L232:
 301:Drivers/STM32H7xx_HAL_Driver/Src/stm32h7xx_hal_flash_ex.c ****     {
 2537              		.loc 1 301 5 is_stmt 1 view .LVU752
 301:Drivers/STM32H7xx_HAL_Driver/Src/stm32h7xx_hal_flash_ex.c ****     {
 2538              		.loc 1 301 8 is_stmt 0 view .LVU753
 2539 0048 0221     		movs	r1, #2
 2540 004a 4CF25030 		movw	r0, #50000
 2541 004e FFF7FEFF 		bl	FLASH_WaitForLastOperation
 2542              	.LVL181:
 301:Drivers/STM32H7xx_HAL_Driver/Src/stm32h7xx_hal_flash_ex.c ****     {
 2543              		.loc 1 301 7 view .LVU754
 2544 0052 0028     		cmp	r0, #0
 2545 0054 E8D0     		beq	.L215
 303:Drivers/STM32H7xx_HAL_Driver/Src/stm32h7xx_hal_flash_ex.c ****     }
 2546              		.loc 1 303 14 view .LVU755
 2547 0056 0125     		movs	r5, #1
 2548              	.LVL182:
 303:Drivers/STM32H7xx_HAL_Driver/Src/stm32h7xx_hal_flash_ex.c ****     }
 2549              		.loc 1 303 14 view .LVU756
 2550 0058 E7E7     		b	.L216
 2551              	.LVL183:
 2552              	.L217:
 314:Drivers/STM32H7xx_HAL_Driver/Src/stm32h7xx_hal_flash_ex.c ****     {
 2553              		.loc 1 314 5 is_stmt 1 view .LVU757
 314:Drivers/STM32H7xx_HAL_Driver/Src/stm32h7xx_hal_flash_ex.c ****     {
 2554              		.loc 1 314 19 is_stmt 0 view .LVU758
 2555 005a 6368     		ldr	r3, [r4, #4]
 314:Drivers/STM32H7xx_HAL_Driver/Src/stm32h7xx_hal_flash_ex.c ****     {
 2556              		.loc 1 314 7 view .LVU759
 2557 005c 13F0010F 		tst	r3, #1
 2558 0060 04D0     		beq	.L218
 318:Drivers/STM32H7xx_HAL_Driver/Src/stm32h7xx_hal_flash_ex.c ****                                   FLASH_IT_STRBERR_BANK1 | FLASH_IT_INCERR_BANK1 | FLASH_IT_OPERR_B
 2559              		.loc 1 318 7 is_stmt 1 view .LVU760
 2560 0062 204A     		ldr	r2, .L237+4
 2561 0064 D368     		ldr	r3, [r2, #12]
 2562 0066 43F4DE03 		orr	r3, r3, #7274496
 2563 006a D360     		str	r3, [r2, #12]
 2564              	.L218:
 325:Drivers/STM32H7xx_HAL_Driver/Src/stm32h7xx_hal_flash_ex.c ****     {
 2565              		.loc 1 325 5 view .LVU761
 325:Drivers/STM32H7xx_HAL_Driver/Src/stm32h7xx_hal_flash_ex.c ****     {
 2566              		.loc 1 325 19 is_stmt 0 view .LVU762
ARM GAS  C:\Users\chesn\AppData\Local\Temp\ccAfRyoq.s 			page 82


 2567 006c 6368     		ldr	r3, [r4, #4]
 325:Drivers/STM32H7xx_HAL_Driver/Src/stm32h7xx_hal_flash_ex.c ****     {
 2568              		.loc 1 325 7 view .LVU763
 2569 006e 13F0020F 		tst	r3, #2
 2570 0072 06D0     		beq	.L219
 329:Drivers/STM32H7xx_HAL_Driver/Src/stm32h7xx_hal_flash_ex.c ****                                   FLASH_IT_STRBERR_BANK2 | FLASH_IT_INCERR_BANK2 | FLASH_IT_OPERR_B
 2571              		.loc 1 329 7 is_stmt 1 view .LVU764
 2572 0074 1B4A     		ldr	r2, .L237+4
 2573 0076 D2F80C31 		ldr	r3, [r2, #268]
 2574 007a 43F4DE03 		orr	r3, r3, #7274496
 2575 007e C2F80C31 		str	r3, [r2, #268]
 2576              	.L219:
 337:Drivers/STM32H7xx_HAL_Driver/Src/stm32h7xx_hal_flash_ex.c ****     {
 2577              		.loc 1 337 5 view .LVU765
 337:Drivers/STM32H7xx_HAL_Driver/Src/stm32h7xx_hal_flash_ex.c ****     {
 2578              		.loc 1 337 18 is_stmt 0 view .LVU766
 2579 0082 2368     		ldr	r3, [r4]
 337:Drivers/STM32H7xx_HAL_Driver/Src/stm32h7xx_hal_flash_ex.c ****     {
 2580              		.loc 1 337 7 view .LVU767
 2581 0084 012B     		cmp	r3, #1
 2582 0086 11D0     		beq	.L233
 358:Drivers/STM32H7xx_HAL_Driver/Src/stm32h7xx_hal_flash_ex.c ****       {
 2583              		.loc 1 358 7 is_stmt 1 view .LVU768
 358:Drivers/STM32H7xx_HAL_Driver/Src/stm32h7xx_hal_flash_ex.c ****       {
 2584              		.loc 1 358 20 is_stmt 0 view .LVU769
 2585 0088 6368     		ldr	r3, [r4, #4]
 358:Drivers/STM32H7xx_HAL_Driver/Src/stm32h7xx_hal_flash_ex.c ****       {
 2586              		.loc 1 358 9 view .LVU770
 2587 008a 012B     		cmp	r3, #1
 2588 008c 22D0     		beq	.L234
 364:Drivers/STM32H7xx_HAL_Driver/Src/stm32h7xx_hal_flash_ex.c ****       }
 2589              		.loc 1 364 9 is_stmt 1 view .LVU771
 364:Drivers/STM32H7xx_HAL_Driver/Src/stm32h7xx_hal_flash_ex.c ****       }
 2590              		.loc 1 364 33 is_stmt 0 view .LVU772
 2591 008e 144B     		ldr	r3, .L237
 2592 0090 0422     		movs	r2, #4
 2593 0092 1A70     		strb	r2, [r3]
 2594              	.L225:
 367:Drivers/STM32H7xx_HAL_Driver/Src/stm32h7xx_hal_flash_ex.c ****       pFlash.Sector = pEraseInit->Sector;
 2595              		.loc 1 367 7 is_stmt 1 view .LVU773
 367:Drivers/STM32H7xx_HAL_Driver/Src/stm32h7xx_hal_flash_ex.c ****       pFlash.Sector = pEraseInit->Sector;
 2596              		.loc 1 367 43 is_stmt 0 view .LVU774
 2597 0094 E268     		ldr	r2, [r4, #12]
 367:Drivers/STM32H7xx_HAL_Driver/Src/stm32h7xx_hal_flash_ex.c ****       pFlash.Sector = pEraseInit->Sector;
 2598              		.loc 1 367 31 view .LVU775
 2599 0096 124B     		ldr	r3, .L237
 2600 0098 5A60     		str	r2, [r3, #4]
 368:Drivers/STM32H7xx_HAL_Driver/Src/stm32h7xx_hal_flash_ex.c ****       pFlash.VoltageForErase = pEraseInit->VoltageRange;
 2601              		.loc 1 368 7 is_stmt 1 view .LVU776
 368:Drivers/STM32H7xx_HAL_Driver/Src/stm32h7xx_hal_flash_ex.c ****       pFlash.VoltageForErase = pEraseInit->VoltageRange;
 2602              		.loc 1 368 33 is_stmt 0 view .LVU777
 2603 009a A268     		ldr	r2, [r4, #8]
 368:Drivers/STM32H7xx_HAL_Driver/Src/stm32h7xx_hal_flash_ex.c ****       pFlash.VoltageForErase = pEraseInit->VoltageRange;
 2604              		.loc 1 368 21 view .LVU778
 2605 009c DA60     		str	r2, [r3, #12]
 369:Drivers/STM32H7xx_HAL_Driver/Src/stm32h7xx_hal_flash_ex.c **** 
 2606              		.loc 1 369 7 is_stmt 1 view .LVU779
ARM GAS  C:\Users\chesn\AppData\Local\Temp\ccAfRyoq.s 			page 83


 369:Drivers/STM32H7xx_HAL_Driver/Src/stm32h7xx_hal_flash_ex.c **** 
 2607              		.loc 1 369 42 is_stmt 0 view .LVU780
 2608 009e 2269     		ldr	r2, [r4, #16]
 369:Drivers/STM32H7xx_HAL_Driver/Src/stm32h7xx_hal_flash_ex.c **** 
 2609              		.loc 1 369 30 view .LVU781
 2610 00a0 9A60     		str	r2, [r3, #8]
 372:Drivers/STM32H7xx_HAL_Driver/Src/stm32h7xx_hal_flash_ex.c ****     }
 2611              		.loc 1 372 7 is_stmt 1 view .LVU782
 2612 00a2 6168     		ldr	r1, [r4, #4]
 2613 00a4 A068     		ldr	r0, [r4, #8]
 2614 00a6 FFF7FEFF 		bl	FLASH_Erase_Sector
 2615              	.LVL184:
 2616 00aa C1E7     		b	.L213
 2617              	.L233:
 340:Drivers/STM32H7xx_HAL_Driver/Src/stm32h7xx_hal_flash_ex.c ****       {
 2618              		.loc 1 340 7 view .LVU783
 340:Drivers/STM32H7xx_HAL_Driver/Src/stm32h7xx_hal_flash_ex.c ****       {
 2619              		.loc 1 340 20 is_stmt 0 view .LVU784
 2620 00ac 6168     		ldr	r1, [r4, #4]
 340:Drivers/STM32H7xx_HAL_Driver/Src/stm32h7xx_hal_flash_ex.c ****       {
 2621              		.loc 1 340 9 view .LVU785
 2622 00ae 0129     		cmp	r1, #1
 2623 00b0 08D0     		beq	.L235
 344:Drivers/STM32H7xx_HAL_Driver/Src/stm32h7xx_hal_flash_ex.c ****       {
 2624              		.loc 1 344 12 is_stmt 1 view .LVU786
 344:Drivers/STM32H7xx_HAL_Driver/Src/stm32h7xx_hal_flash_ex.c ****       {
 2625              		.loc 1 344 14 is_stmt 0 view .LVU787
 2626 00b2 0229     		cmp	r1, #2
 2627 00b4 0AD0     		beq	.L236
 350:Drivers/STM32H7xx_HAL_Driver/Src/stm32h7xx_hal_flash_ex.c ****       }
 2628              		.loc 1 350 9 is_stmt 1 view .LVU788
 350:Drivers/STM32H7xx_HAL_Driver/Src/stm32h7xx_hal_flash_ex.c ****       }
 2629              		.loc 1 350 33 is_stmt 0 view .LVU789
 2630 00b6 0A4B     		ldr	r3, .L237
 2631 00b8 0722     		movs	r2, #7
 2632 00ba 1A70     		strb	r2, [r3]
 2633              	.L222:
 353:Drivers/STM32H7xx_HAL_Driver/Src/stm32h7xx_hal_flash_ex.c ****     }
 2634              		.loc 1 353 7 is_stmt 1 view .LVU790
 2635 00bc 2069     		ldr	r0, [r4, #16]
 2636 00be FFF7FEFF 		bl	FLASH_MassErase
 2637              	.LVL185:
 2638 00c2 B5E7     		b	.L213
 2639              	.L235:
 342:Drivers/STM32H7xx_HAL_Driver/Src/stm32h7xx_hal_flash_ex.c ****       }
 2640              		.loc 1 342 9 view .LVU791
 342:Drivers/STM32H7xx_HAL_Driver/Src/stm32h7xx_hal_flash_ex.c ****       }
 2641              		.loc 1 342 33 is_stmt 0 view .LVU792
 2642 00c4 064B     		ldr	r3, .L237
 2643 00c6 0222     		movs	r2, #2
 2644 00c8 1A70     		strb	r2, [r3]
 2645 00ca F7E7     		b	.L222
 2646              	.L236:
 346:Drivers/STM32H7xx_HAL_Driver/Src/stm32h7xx_hal_flash_ex.c ****       }
 2647              		.loc 1 346 9 is_stmt 1 view .LVU793
 346:Drivers/STM32H7xx_HAL_Driver/Src/stm32h7xx_hal_flash_ex.c ****       }
 2648              		.loc 1 346 33 is_stmt 0 view .LVU794
ARM GAS  C:\Users\chesn\AppData\Local\Temp\ccAfRyoq.s 			page 84


 2649 00cc 044B     		ldr	r3, .L237
 2650 00ce 0522     		movs	r2, #5
 2651 00d0 1A70     		strb	r2, [r3]
 2652 00d2 F3E7     		b	.L222
 2653              	.L234:
 360:Drivers/STM32H7xx_HAL_Driver/Src/stm32h7xx_hal_flash_ex.c ****       }
 2654              		.loc 1 360 9 is_stmt 1 view .LVU795
 360:Drivers/STM32H7xx_HAL_Driver/Src/stm32h7xx_hal_flash_ex.c ****       }
 2655              		.loc 1 360 33 is_stmt 0 view .LVU796
 2656 00d4 024B     		ldr	r3, .L237
 2657 00d6 0122     		movs	r2, #1
 2658 00d8 1A70     		strb	r2, [r3]
 2659 00da DBE7     		b	.L225
 2660              	.LVL186:
 2661              	.L226:
 285:Drivers/STM32H7xx_HAL_Driver/Src/stm32h7xx_hal_flash_ex.c **** 
 2662              		.loc 1 285 3 view .LVU797
 2663 00dc 0225     		movs	r5, #2
 2664 00de A7E7     		b	.L213
 2665              	.L238:
 2666              		.align	2
 2667              	.L237:
 2668 00e0 00000000 		.word	pFlash
 2669 00e4 00200052 		.word	1375739904
 2670              		.cfi_endproc
 2671              	.LFE142:
 2673              		.text
 2674              	.Letext0:
 2675              		.file 2 "c:\\users\\chesn\\appdata\\roaming\\gnu mcu eclipse\\arm embedded gcc\\xpack-arm-none-eab
 2676              		.file 3 "c:\\users\\chesn\\appdata\\roaming\\gnu mcu eclipse\\arm embedded gcc\\xpack-arm-none-eab
 2677              		.file 4 "Drivers/CMSIS/Include/core_cm7.h"
 2678              		.file 5 "Drivers/CMSIS/Device/ST/STM32H7xx/Include/system_stm32h7xx.h"
 2679              		.file 6 "Drivers/CMSIS/Device/ST/STM32H7xx/Include/stm32h743xx.h"
 2680              		.file 7 "c:\\users\\chesn\\appdata\\roaming\\gnu mcu eclipse\\arm embedded gcc\\xpack-arm-none-eab
 2681              		.file 8 "c:\\users\\chesn\\appdata\\roaming\\gnu mcu eclipse\\arm embedded gcc\\xpack-arm-none-eab
 2682              		.file 9 "c:\\users\\chesn\\appdata\\roaming\\gnu mcu eclipse\\arm embedded gcc\\xpack-arm-none-eab
 2683              		.file 10 "c:\\users\\chesn\\appdata\\roaming\\gnu mcu eclipse\\arm embedded gcc\\xpack-arm-none-ea
 2684              		.file 11 "c:\\users\\chesn\\appdata\\roaming\\gnu mcu eclipse\\arm embedded gcc\\xpack-arm-none-ea
 2685              		.file 12 "Drivers/STM32H7xx_HAL_Driver/Inc/stm32h7xx_hal_def.h"
 2686              		.file 13 "Drivers/STM32H7xx_HAL_Driver/Inc/stm32h7xx_hal_flash.h"
 2687              		.file 14 "Drivers/STM32H7xx_HAL_Driver/Inc/stm32h7xx_hal_flash_ex.h"
 2688              		.file 15 "Drivers/STM32H7xx_HAL_Driver/Inc/stm32h7xx_hal.h"
ARM GAS  C:\Users\chesn\AppData\Local\Temp\ccAfRyoq.s 			page 85


DEFINED SYMBOLS
                            *ABS*:0000000000000000 stm32h7xx_hal_flash_ex.c
C:\Users\chesn\AppData\Local\Temp\ccAfRyoq.s:17     .text.FLASH_MassErase:0000000000000000 $t
C:\Users\chesn\AppData\Local\Temp\ccAfRyoq.s:24     .text.FLASH_MassErase:0000000000000000 FLASH_MassErase
C:\Users\chesn\AppData\Local\Temp\ccAfRyoq.s:121    .text.FLASH_MassErase:0000000000000084 $d
C:\Users\chesn\AppData\Local\Temp\ccAfRyoq.s:126    .text.FLASH_OB_EnableWRP:0000000000000000 $t
C:\Users\chesn\AppData\Local\Temp\ccAfRyoq.s:132    .text.FLASH_OB_EnableWRP:0000000000000000 FLASH_OB_EnableWRP
C:\Users\chesn\AppData\Local\Temp\ccAfRyoq.s:185    .text.FLASH_OB_EnableWRP:0000000000000030 $d
C:\Users\chesn\AppData\Local\Temp\ccAfRyoq.s:190    .text.FLASH_OB_DisableWRP:0000000000000000 $t
C:\Users\chesn\AppData\Local\Temp\ccAfRyoq.s:196    .text.FLASH_OB_DisableWRP:0000000000000000 FLASH_OB_DisableWRP
C:\Users\chesn\AppData\Local\Temp\ccAfRyoq.s:249    .text.FLASH_OB_DisableWRP:000000000000002c $d
C:\Users\chesn\AppData\Local\Temp\ccAfRyoq.s:254    .text.FLASH_OB_GetWRP:0000000000000000 $t
C:\Users\chesn\AppData\Local\Temp\ccAfRyoq.s:260    .text.FLASH_OB_GetWRP:0000000000000000 FLASH_OB_GetWRP
C:\Users\chesn\AppData\Local\Temp\ccAfRyoq.s:331    .text.FLASH_OB_GetWRP:0000000000000030 $d
C:\Users\chesn\AppData\Local\Temp\ccAfRyoq.s:336    .text.FLASH_OB_RDPConfig:0000000000000000 $t
C:\Users\chesn\AppData\Local\Temp\ccAfRyoq.s:342    .text.FLASH_OB_RDPConfig:0000000000000000 FLASH_OB_RDPConfig
C:\Users\chesn\AppData\Local\Temp\ccAfRyoq.s:362    .text.FLASH_OB_RDPConfig:0000000000000010 $d
C:\Users\chesn\AppData\Local\Temp\ccAfRyoq.s:367    .text.FLASH_OB_GetRDP:0000000000000000 $t
C:\Users\chesn\AppData\Local\Temp\ccAfRyoq.s:373    .text.FLASH_OB_GetRDP:0000000000000000 FLASH_OB_GetRDP
C:\Users\chesn\AppData\Local\Temp\ccAfRyoq.s:407    .text.FLASH_OB_GetRDP:000000000000001c $d
C:\Users\chesn\AppData\Local\Temp\ccAfRyoq.s:412    .text.FLASH_OB_UserConfig:0000000000000000 $t
C:\Users\chesn\AppData\Local\Temp\ccAfRyoq.s:418    .text.FLASH_OB_UserConfig:0000000000000000 FLASH_OB_UserConfig
C:\Users\chesn\AppData\Local\Temp\ccAfRyoq.s:607    .text.FLASH_OB_UserConfig:00000000000000a4 $d
C:\Users\chesn\AppData\Local\Temp\ccAfRyoq.s:612    .text.FLASH_OB_GetUser:0000000000000000 $t
C:\Users\chesn\AppData\Local\Temp\ccAfRyoq.s:618    .text.FLASH_OB_GetUser:0000000000000000 FLASH_OB_GetUser
C:\Users\chesn\AppData\Local\Temp\ccAfRyoq.s:641    .text.FLASH_OB_GetUser:000000000000000c $d
C:\Users\chesn\AppData\Local\Temp\ccAfRyoq.s:647    .text.FLASH_OB_PCROPConfig:0000000000000000 $t
C:\Users\chesn\AppData\Local\Temp\ccAfRyoq.s:653    .text.FLASH_OB_PCROPConfig:0000000000000000 FLASH_OB_PCROPConfig
C:\Users\chesn\AppData\Local\Temp\ccAfRyoq.s:732    .text.FLASH_OB_PCROPConfig:0000000000000040 $d
C:\Users\chesn\AppData\Local\Temp\ccAfRyoq.s:737    .text.FLASH_OB_GetPCROP:0000000000000000 $t
C:\Users\chesn\AppData\Local\Temp\ccAfRyoq.s:743    .text.FLASH_OB_GetPCROP:0000000000000000 FLASH_OB_GetPCROP
C:\Users\chesn\AppData\Local\Temp\ccAfRyoq.s:838    .text.FLASH_OB_GetPCROP:0000000000000048 $d
C:\Users\chesn\AppData\Local\Temp\ccAfRyoq.s:844    .text.FLASH_OB_BOR_LevelConfig:0000000000000000 $t
C:\Users\chesn\AppData\Local\Temp\ccAfRyoq.s:850    .text.FLASH_OB_BOR_LevelConfig:0000000000000000 FLASH_OB_BOR_LevelConfig
C:\Users\chesn\AppData\Local\Temp\ccAfRyoq.s:870    .text.FLASH_OB_BOR_LevelConfig:0000000000000010 $d
C:\Users\chesn\AppData\Local\Temp\ccAfRyoq.s:875    .text.FLASH_OB_GetBOR:0000000000000000 $t
C:\Users\chesn\AppData\Local\Temp\ccAfRyoq.s:881    .text.FLASH_OB_GetBOR:0000000000000000 FLASH_OB_GetBOR
C:\Users\chesn\AppData\Local\Temp\ccAfRyoq.s:898    .text.FLASH_OB_GetBOR:000000000000000c $d
C:\Users\chesn\AppData\Local\Temp\ccAfRyoq.s:903    .text.FLASH_OB_BootAddConfig:0000000000000000 $t
C:\Users\chesn\AppData\Local\Temp\ccAfRyoq.s:909    .text.FLASH_OB_BootAddConfig:0000000000000000 FLASH_OB_BootAddConfig
C:\Users\chesn\AppData\Local\Temp\ccAfRyoq.s:963    .text.FLASH_OB_BootAddConfig:000000000000002c $d
C:\Users\chesn\AppData\Local\Temp\ccAfRyoq.s:969    .text.FLASH_OB_GetBootAdd:0000000000000000 $t
C:\Users\chesn\AppData\Local\Temp\ccAfRyoq.s:975    .text.FLASH_OB_GetBootAdd:0000000000000000 FLASH_OB_GetBootAdd
C:\Users\chesn\AppData\Local\Temp\ccAfRyoq.s:1005   .text.FLASH_OB_GetBootAdd:0000000000000010 $d
C:\Users\chesn\AppData\Local\Temp\ccAfRyoq.s:1011   .text.FLASH_OB_SecureAreaConfig:0000000000000000 $t
C:\Users\chesn\AppData\Local\Temp\ccAfRyoq.s:1017   .text.FLASH_OB_SecureAreaConfig:0000000000000000 FLASH_OB_SecureAreaConfig
C:\Users\chesn\AppData\Local\Temp\ccAfRyoq.s:1100   .text.FLASH_OB_SecureAreaConfig:0000000000000048 $d
C:\Users\chesn\AppData\Local\Temp\ccAfRyoq.s:1105   .text.FLASH_OB_GetSecureArea:0000000000000000 $t
C:\Users\chesn\AppData\Local\Temp\ccAfRyoq.s:1111   .text.FLASH_OB_GetSecureArea:0000000000000000 FLASH_OB_GetSecureArea
C:\Users\chesn\AppData\Local\Temp\ccAfRyoq.s:1206   .text.FLASH_OB_GetSecureArea:0000000000000048 $d
C:\Users\chesn\AppData\Local\Temp\ccAfRyoq.s:1212   .text.FLASH_CRC_AddSector:0000000000000000 $t
C:\Users\chesn\AppData\Local\Temp\ccAfRyoq.s:1218   .text.FLASH_CRC_AddSector:0000000000000000 FLASH_CRC_AddSector
C:\Users\chesn\AppData\Local\Temp\ccAfRyoq.s:1267   .text.FLASH_CRC_AddSector:0000000000000038 $d
C:\Users\chesn\AppData\Local\Temp\ccAfRyoq.s:1272   .text.FLASH_CRC_SelectAddress:0000000000000000 $t
C:\Users\chesn\AppData\Local\Temp\ccAfRyoq.s:1278   .text.FLASH_CRC_SelectAddress:0000000000000000 FLASH_CRC_SelectAddress
C:\Users\chesn\AppData\Local\Temp\ccAfRyoq.s:1315   .text.FLASH_CRC_SelectAddress:0000000000000018 $d
C:\Users\chesn\AppData\Local\Temp\ccAfRyoq.s:1320   .text.HAL_FLASHEx_OBProgram:0000000000000000 $t
ARM GAS  C:\Users\chesn\AppData\Local\Temp\ccAfRyoq.s 			page 86


C:\Users\chesn\AppData\Local\Temp\ccAfRyoq.s:1327   .text.HAL_FLASHEx_OBProgram:0000000000000000 HAL_FLASHEx_OBProgram
C:\Users\chesn\AppData\Local\Temp\ccAfRyoq.s:1524   .text.HAL_FLASHEx_OBProgram:00000000000000d8 $d
C:\Users\chesn\AppData\Local\Temp\ccAfRyoq.s:1529   .text.HAL_FLASHEx_OBGetConfig:0000000000000000 $t
C:\Users\chesn\AppData\Local\Temp\ccAfRyoq.s:1536   .text.HAL_FLASHEx_OBGetConfig:0000000000000000 HAL_FLASHEx_OBGetConfig
C:\Users\chesn\AppData\Local\Temp\ccAfRyoq.s:1624   .text.HAL_FLASHEx_Unlock_Bank1:0000000000000000 $t
C:\Users\chesn\AppData\Local\Temp\ccAfRyoq.s:1631   .text.HAL_FLASHEx_Unlock_Bank1:0000000000000000 HAL_FLASHEx_Unlock_Bank1
C:\Users\chesn\AppData\Local\Temp\ccAfRyoq.s:1672   .text.HAL_FLASHEx_Unlock_Bank1:000000000000002c $d
C:\Users\chesn\AppData\Local\Temp\ccAfRyoq.s:1678   .text.HAL_FLASHEx_Lock_Bank1:0000000000000000 $t
C:\Users\chesn\AppData\Local\Temp\ccAfRyoq.s:1685   .text.HAL_FLASHEx_Lock_Bank1:0000000000000000 HAL_FLASHEx_Lock_Bank1
C:\Users\chesn\AppData\Local\Temp\ccAfRyoq.s:1704   .text.HAL_FLASHEx_Lock_Bank1:0000000000000010 $d
C:\Users\chesn\AppData\Local\Temp\ccAfRyoq.s:1709   .text.HAL_FLASHEx_Unlock_Bank2:0000000000000000 $t
C:\Users\chesn\AppData\Local\Temp\ccAfRyoq.s:1716   .text.HAL_FLASHEx_Unlock_Bank2:0000000000000000 HAL_FLASHEx_Unlock_Bank2
C:\Users\chesn\AppData\Local\Temp\ccAfRyoq.s:1757   .text.HAL_FLASHEx_Unlock_Bank2:0000000000000034 $d
C:\Users\chesn\AppData\Local\Temp\ccAfRyoq.s:1763   .text.HAL_FLASHEx_Lock_Bank2:0000000000000000 $t
C:\Users\chesn\AppData\Local\Temp\ccAfRyoq.s:1770   .text.HAL_FLASHEx_Lock_Bank2:0000000000000000 HAL_FLASHEx_Lock_Bank2
C:\Users\chesn\AppData\Local\Temp\ccAfRyoq.s:1789   .text.HAL_FLASHEx_Lock_Bank2:0000000000000014 $d
C:\Users\chesn\AppData\Local\Temp\ccAfRyoq.s:1794   .text.HAL_FLASHEx_ComputeCRC:0000000000000000 $t
C:\Users\chesn\AppData\Local\Temp\ccAfRyoq.s:1801   .text.HAL_FLASHEx_ComputeCRC:0000000000000000 HAL_FLASHEx_ComputeCRC
C:\Users\chesn\AppData\Local\Temp\ccAfRyoq.s:2073   .text.HAL_FLASHEx_ComputeCRC:0000000000000158 $d
C:\Users\chesn\AppData\Local\Temp\ccAfRyoq.s:2079   .text.FLASH_Erase_Sector:0000000000000000 $t
C:\Users\chesn\AppData\Local\Temp\ccAfRyoq.s:2086   .text.FLASH_Erase_Sector:0000000000000000 FLASH_Erase_Sector
C:\Users\chesn\AppData\Local\Temp\ccAfRyoq.s:2156   .text.FLASH_Erase_Sector:000000000000004c $d
C:\Users\chesn\AppData\Local\Temp\ccAfRyoq.s:2161   .text.HAL_FLASHEx_Erase:0000000000000000 $t
C:\Users\chesn\AppData\Local\Temp\ccAfRyoq.s:2168   .text.HAL_FLASHEx_Erase:0000000000000000 HAL_FLASHEx_Erase
C:\Users\chesn\AppData\Local\Temp\ccAfRyoq.s:2436   .text.HAL_FLASHEx_Erase:0000000000000120 $d
C:\Users\chesn\AppData\Local\Temp\ccAfRyoq.s:2443   .text.HAL_FLASHEx_Erase_IT:0000000000000000 $t
C:\Users\chesn\AppData\Local\Temp\ccAfRyoq.s:2450   .text.HAL_FLASHEx_Erase_IT:0000000000000000 HAL_FLASHEx_Erase_IT
C:\Users\chesn\AppData\Local\Temp\ccAfRyoq.s:2668   .text.HAL_FLASHEx_Erase_IT:00000000000000e0 $d

UNDEFINED SYMBOLS
FLASH_WaitForLastOperation
pFlash
FLASH_OB_WaitForLastOperation
FLASH_CRC_WaitForLastOperation
